/*
 * Copyright 2000-2019
 * SPDX-License-Identifier: GPL-2.0
 */
	.arch armv7-a
	.eabi_attribute 20, 1
	.eabi_attribute 21, 1
	.eabi_attribute 23, 3
	.eabi_attribute 24, 1
	.eabi_attribute 25, 1
	.eabi_attribute 26, 2
	.eabi_attribute 30, 4
	.eabi_attribute 34, 0
	.eabi_attribute 18, 2
	.file	"nftl.c"
	.section	.text._nand_sector_read,"ax",%progbits
	.align	1
	.global	_nand_sector_read
	.syntax unified
	.thumb
	.thumb_func
	.fpu softvfp
	.type	_nand_sector_read, %function
_nand_sector_read:
	@ args = 0, pretend = 0, frame = 0
	@ frame_needed = 0, uses_anonymous_args = 0
	@ link register save eliminated.
	movs	r0, #0
	bx	lr
	.size	_nand_sector_read, .-_nand_sector_read
	.section	.text._nand_flush_sector_write_cache,"ax",%progbits
	.align	1
	.global	_nand_flush_sector_write_cache
	.syntax unified
	.thumb
	.thumb_func
	.fpu softvfp
	.type	_nand_flush_sector_write_cache, %function
_nand_flush_sector_write_cache:
	@ args = 0, pretend = 0, frame = 0
	@ frame_needed = 0, uses_anonymous_args = 0
	@ link register save eliminated.
	movs	r0, #0
	bx	lr
	.size	_nand_flush_sector_write_cache, .-_nand_flush_sector_write_cache
	.section	.text._shutdown_op,"ax",%progbits
	.align	1
	.global	_shutdown_op
	.syntax unified
	.thumb
	.thumb_func
	.fpu softvfp
	.type	_shutdown_op, %function
_shutdown_op:
	@ args = 0, pretend = 0, frame = 0
	@ frame_needed = 0, uses_anonymous_args = 0
	@ link register save eliminated.
	movs	r0, #0
	bx	lr
	.size	_shutdown_op, .-_shutdown_op
	.section	.text._nftl_nand_erase_superblk,"ax",%progbits
	.align	1
	.global	_nftl_nand_erase_superblk
	.syntax unified
	.thumb
	.thumb_func
	.fpu softvfp
	.type	_nftl_nand_erase_superblk, %function
_nftl_nand_erase_superblk:
	@ args = 0, pretend = 0, frame = 16
	@ frame_needed = 0, uses_anonymous_args = 0
	push	{r0, r1, r2, r3, r4, lr}
	ldr	r3, [r0]
	ldr	r0, [r3, #4]
	ldrh	r3, [r1, #2]
	strh	r3, [sp, #2]	@ movhi
	ldrh	r3, [r1]
	strh	r3, [sp]	@ movhi
	ldrh	r3, [r1, #4]
	strh	r3, [sp, #4]	@ movhi
	ldr	r3, [r1, #8]
	str	r3, [sp, #8]
	ldr	r3, [r1, #12]
	mov	r1, sp
	str	r3, [sp, #12]
	ldr	r3, [r0, #84]
	blx	r3
	add	sp, sp, #20
	@ sp needed
	ldr	pc, [sp], #4
	.size	_nftl_nand_erase_superblk, .-_nftl_nand_erase_superblk
	.section	.text._nftl_nand_is_blk_good,"ax",%progbits
	.align	1
	.global	_nftl_nand_is_blk_good
	.syntax unified
	.thumb
	.thumb_func
	.fpu softvfp
	.type	_nftl_nand_is_blk_good, %function
_nftl_nand_is_blk_good:
	@ args = 0, pretend = 0, frame = 16
	@ frame_needed = 0, uses_anonymous_args = 0
	push	{r0, r1, r2, r3, r4, lr}
	ldr	r3, [r0]
	ldr	r0, [r3, #4]
	ldrh	r3, [r1, #2]
	strh	r3, [sp, #2]	@ movhi
	ldrh	r3, [r1]
	strh	r3, [sp]	@ movhi
	ldrh	r3, [r1, #4]
	strh	r3, [sp, #4]	@ movhi
	ldr	r3, [r1, #8]
	str	r3, [sp, #8]
	ldr	r3, [r1, #12]
	mov	r1, sp
	str	r3, [sp, #12]
	ldr	r3, [r0, #96]
	blx	r3
	add	sp, sp, #20
	@ sp needed
	ldr	pc, [sp], #4
	.size	_nftl_nand_is_blk_good, .-_nftl_nand_is_blk_good
	.section	.text._nftl_nand_mark_bad_blk,"ax",%progbits
	.align	1
	.global	_nftl_nand_mark_bad_blk
	.syntax unified
	.thumb
	.thumb_func
	.fpu softvfp
	.type	_nftl_nand_mark_bad_blk, %function
_nftl_nand_mark_bad_blk:
	@ args = 0, pretend = 0, frame = 16
	@ frame_needed = 0, uses_anonymous_args = 0
	push	{r0, r1, r2, r3, r4, lr}
	ldr	r3, [r0]
	ldr	r0, [r3, #4]
	ldrh	r3, [r1, #2]
	strh	r3, [sp, #2]	@ movhi
	ldrh	r3, [r1]
	strh	r3, [sp]	@ movhi
	ldrh	r3, [r1, #4]
	strh	r3, [sp, #4]	@ movhi
	ldr	r3, [r1, #8]
	str	r3, [sp, #8]
	ldr	r3, [r1, #12]
	mov	r1, sp
	str	r3, [sp, #12]
	ldr	r3, [r0, #100]
	blx	r3
	add	sp, sp, #20
	@ sp needed
	ldr	pc, [sp], #4
	.size	_nftl_nand_mark_bad_blk, .-_nftl_nand_mark_bad_blk
	.section	.text.dumphex,"ax",%progbits
	.align	1
	.syntax unified
	.thumb
	.thumb_func
	.fpu softvfp
	.type	dumphex, %function
dumphex:
	@ args = 0, pretend = 0, frame = 0
	@ frame_needed = 0, uses_anonymous_args = 0
	push	{r4, r5, r6, r7, r8, lr}
	mov	r6, r1
	ldr	r7, .L10
	sub	sp, sp, #56
	mov	r4, r0
	movs	r5, #0
	ldr	r8, .L10+8
.L8:
	cmp	r5, r6
	add	r4, r4, #16
	bcc	.L9
	ldr	r0, .L10+4
	add	sp, sp, #56
	@ sp needed
	pop	{r4, r5, r6, r7, r8, lr}
	b	NAND_Print
.L9:
	mov	r1, r5
	mov	r0, r7
	bl	NAND_Print
	ldrb	r0, [r4, #-1]	@ zero_extendqisi2
	adds	r5, r5, #16
	ldrb	r3, [r4, #-14]	@ zero_extendqisi2
	ldrb	r2, [r4, #-15]	@ zero_extendqisi2
	ldrb	r1, [r4, #-16]	@ zero_extendqisi2
	str	r0, [sp, #48]
	ldrb	r0, [r4, #-2]	@ zero_extendqisi2
	str	r0, [sp, #44]
	ldrb	r0, [r4, #-3]	@ zero_extendqisi2
	str	r0, [sp, #40]
	ldrb	r0, [r4, #-4]	@ zero_extendqisi2
	str	r0, [sp, #36]
	ldrb	r0, [r4, #-5]	@ zero_extendqisi2
	str	r0, [sp, #32]
	ldrb	r0, [r4, #-6]	@ zero_extendqisi2
	str	r0, [sp, #28]
	ldrb	r0, [r4, #-7]	@ zero_extendqisi2
	str	r0, [sp, #24]
	ldrb	r0, [r4, #-8]	@ zero_extendqisi2
	str	r0, [sp, #20]
	ldrb	r0, [r4, #-9]	@ zero_extendqisi2
	str	r0, [sp, #16]
	ldrb	r0, [r4, #-10]	@ zero_extendqisi2
	str	r0, [sp, #12]
	ldrb	r0, [r4, #-11]	@ zero_extendqisi2
	str	r0, [sp, #8]
	ldrb	r0, [r4, #-12]	@ zero_extendqisi2
	str	r0, [sp, #4]
	ldrb	r0, [r4, #-13]	@ zero_extendqisi2
	str	r0, [sp]
	mov	r0, r8
	bl	NAND_Print
	b	.L8
.L11:
	.align	2
.L10:
	.word	.LC5
	.word	.LC7
	.word	.LC6
	.size	dumphex, .-dumphex
	.section	.text._nftl_nand_read_page,"ax",%progbits
	.align	1
	.global	_nftl_nand_read_page
	.syntax unified
	.thumb
	.thumb_func
	.fpu softvfp
	.type	_nftl_nand_read_page, %function
_nftl_nand_read_page:
	@ args = 0, pretend = 0, frame = 16
	@ frame_needed = 0, uses_anonymous_args = 0
	push	{r4, r5, lr}
	mov	r4, r0
	ldr	r2, [r4, #1968]
	sub	sp, sp, #20
	ldr	r3, [r0]
	ldr	r0, [r3, #4]
	ldrd	r3, r5, [r2, #80]
	adds	r3, r3, #1
	adc	r5, r5, #0
	strd	r3, r5, [r2, #80]
	ldrh	r3, [r1, #2]
	strh	r3, [sp, #2]	@ movhi
	ldrh	r3, [r1]
	strh	r3, [sp]	@ movhi
	ldrh	r3, [r1, #4]
	strh	r3, [sp, #4]	@ movhi
	ldr	r3, [r1, #8]
	str	r3, [sp, #8]
	ldr	r3, [r1, #12]
	mov	r1, sp
	str	r3, [sp, #12]
	ldr	r3, [r0, #88]
	blx	r3
	adds	r3, r0, #2
	itttt	eq
	ldreq	r2, [r4, #1968]
	ldreq	r3, [r2, #132]
	addeq	r3, r3, #1
	streq	r3, [r2, #132]
	add	sp, sp, #20
	@ sp needed
	pop	{r4, r5, pc}
	.size	_nftl_nand_read_page, .-_nftl_nand_read_page
	.section	.text._nftl_nand_write_page,"ax",%progbits
	.align	1
	.global	_nftl_nand_write_page
	.syntax unified
	.thumb
	.thumb_func
	.fpu softvfp
	.type	_nftl_nand_write_page, %function
_nftl_nand_write_page:
	@ args = 0, pretend = 0, frame = 16
	@ frame_needed = 0, uses_anonymous_args = 0
	push	{r4, r5, lr}
	mov	r4, r0
	ldr	r3, [r0]
	sub	sp, sp, #20
	ldr	r2, [r4, #1968]
	ldr	r0, [r3, #4]
	ldrd	r3, r5, [r2, #88]
	adds	r3, r3, #1
	adc	r5, r5, #0
	strd	r3, r5, [r2, #88]
	ldrh	r3, [r1, #2]
	strh	r3, [sp, #2]	@ movhi
	ldrh	r3, [r1]
	strh	r3, [sp]	@ movhi
	ldrh	r3, [r1, #4]
	strh	r3, [sp, #4]	@ movhi
	ldr	r3, [r1, #8]
	str	r3, [sp, #8]
	ldr	r3, [r1, #12]
	mov	r1, sp
	str	r3, [sp, #12]
	ldr	r3, [r0, #92]
	blx	r3
	cbz	r0, .L14
	ldr	r2, [r4, #1968]
	ldr	r3, [r2, #136]
	adds	r3, r3, #1
	str	r3, [r2, #136]
.L14:
	add	sp, sp, #20
	@ sp needed
	pop	{r4, r5, pc}
	.size	_nftl_nand_write_page, .-_nftl_nand_write_page
	.section	.text._nand_sector_write,"ax",%progbits
	.align	1
	.global	_nand_sector_write
	.syntax unified
	.thumb
	.thumb_func
	.fpu softvfp
	.type	_nand_sector_write, %function
_nand_sector_write:
	@ args = 0, pretend = 0, frame = 0
	@ frame_needed = 0, uses_anonymous_args = 0
	@ link register save eliminated.
	movs	r0, #0
	bx	lr
	.size	_nand_sector_write, .-_nand_sector_write
	.section	.text.print_all_nftl_blk,"ax",%progbits
	.align	1
	.global	print_all_nftl_blk
	.syntax unified
	.thumb
	.thumb_func
	.fpu softvfp
	.type	print_all_nftl_blk, %function
print_all_nftl_blk:
	@ args = 0, pretend = 0, frame = 0
	@ frame_needed = 0, uses_anonymous_args = 0
	push	{r3, r4, r5, lr}
	ldr	r4, .L23
	ldr	r5, .L23+4
.L21:
	ldr	r3, [r4, #8]
	cbnz	r3, .L22
	pop	{r3, r4, r5, pc}
.L22:
	ldr	r1, [r3]
	mov	r0, r5
	bl	NAND_Print_DBG
	ldr	r4, [r4, #8]
	b	.L21
.L24:
	.align	2
.L23:
	.word	.LANCHOR0
	.word	.LC8
	.size	print_all_nftl_blk, .-print_all_nftl_blk
	.section	.text.get_nftl_num,"ax",%progbits
	.align	1
	.global	get_nftl_num
	.syntax unified
	.thumb
	.thumb_func
	.fpu softvfp
	.type	get_nftl_num, %function
get_nftl_num:
	@ args = 0, pretend = 0, frame = 0
	@ frame_needed = 0, uses_anonymous_args = 0
	@ link register save eliminated.
	ldr	r3, .L28
	movs	r0, #0
.L26:
	ldr	r3, [r3, #8]
	cbnz	r3, .L27
	bx	lr
.L27:
	adds	r0, r0, #1
	b	.L26
.L29:
	.align	2
.L28:
	.word	.LANCHOR0
	.size	get_nftl_num, .-get_nftl_num
	.section	.text.get_nftl_cap,"ax",%progbits
	.align	1
	.global	get_nftl_cap
	.syntax unified
	.thumb
	.thumb_func
	.fpu softvfp
	.type	get_nftl_cap, %function
get_nftl_cap:
	@ args = 0, pretend = 0, frame = 0
	@ frame_needed = 0, uses_anonymous_args = 0
	@ link register save eliminated.
	ldr	r3, .L33
	movs	r0, #0
.L31:
	ldr	r3, [r3, #8]
	cbnz	r3, .L32
	bx	lr
.L32:
	ldr	r2, [r3]
	add	r0, r0, r2
	b	.L31
.L34:
	.align	2
.L33:
	.word	.LANCHOR0
	.size	get_nftl_cap, .-get_nftl_cap
	.section	.text.get_first_nftl_cap,"ax",%progbits
	.align	1
	.global	get_first_nftl_cap
	.syntax unified
	.thumb
	.thumb_func
	.fpu softvfp
	.type	get_first_nftl_cap, %function
get_first_nftl_cap:
	@ args = 0, pretend = 0, frame = 0
	@ frame_needed = 0, uses_anonymous_args = 0
	@ link register save eliminated.
	ldr	r3, .L36
	ldr	r3, [r3, #8]
	ldr	r0, [r3]
	bx	lr
.L37:
	.align	2
.L36:
	.word	.LANCHOR0
	.size	get_first_nftl_cap, .-get_first_nftl_cap
	.section	.text.nftl_read,"ax",%progbits
	.align	1
	.global	nftl_read
	.syntax unified
	.thumb
	.thumb_func
	.fpu softvfp
	.type	nftl_read, %function
nftl_read:
	@ args = 0, pretend = 0, frame = 0
	@ frame_needed = 0, uses_anonymous_args = 0
	mov	r3, r2
	push	{r4, r5, r6, lr}
	mov	r2, r1
	cbnz	r1, .L47
.L39:
	mov	r0, r2
	pop	{r4, r5, r6, pc}
.L42:
	ldr	r4, [r4, #8]
	subs	r0, r0, r1
	cbnz	r4, .L41
	mov	r1, r0
	ldr	r0, .L48
	bl	NAND_Print
	movs	r2, #1
	b	.L39
.L47:
	ldr	r1, .L48+4
	ldr	r4, [r1, #8]
.L41:
	ldr	r1, [r4]
	cmp	r1, r0
	bls	.L42
	ldr	r5, [r4, #44]
	mov	r1, r0
	mov	r0, r4
	mov	ip, r5
	pop	{r4, r5, r6, lr}
	bx	ip
.L49:
	.align	2
.L48:
	.word	.LC9
	.word	.LANCHOR0
	.size	nftl_read, .-nftl_read
	.section	.text.nftl_read_history,"ax",%progbits
	.align	1
	.global	nftl_read_history
	.syntax unified
	.thumb
	.thumb_func
	.fpu softvfp
	.type	nftl_read_history, %function
nftl_read_history:
	@ args = 0, pretend = 0, frame = 0
	@ frame_needed = 0, uses_anonymous_args = 0
	push	{r4, r5, r6, r7, r8, lr}
	mov	r6, r0
	mov	r8, r2
	mov	r5, r1
	cbz	r1, .L51
	ldr	r3, .L58
	ldr	r0, .L58+4
	ldr	r4, [r3, #8]
	ldr	r1, [r4]
	bl	NAND_Print
.L52:
	ldr	r1, [r4]
	cmp	r1, r6
	bls	.L53
	ldr	r7, [r4, #40]
	mov	r3, r8
	mov	r2, r5
	mov	r1, r6
	mov	r0, r4
	mov	ip, r7
	pop	{r4, r5, r6, r7, r8, lr}
	bx	ip
.L53:
	ldr	r4, [r4, #8]
	subs	r6, r6, r1
	cmp	r4, #0
	bne	.L52
	mov	r2, r5
	movs	r5, #1
	mov	r1, r6
	ldr	r0, .L58+8
	bl	NAND_Print
.L51:
	mov	r0, r5
	pop	{r4, r5, r6, r7, r8, pc}
.L59:
	.align	2
.L58:
	.word	.LANCHOR0
	.word	.LC10
	.word	.LC9
	.size	nftl_read_history, .-nftl_read_history
	.section	.text.nftl_write,"ax",%progbits
	.align	1
	.global	nftl_write
	.syntax unified
	.thumb
	.thumb_func
	.fpu softvfp
	.type	nftl_write, %function
nftl_write:
	@ args = 0, pretend = 0, frame = 0
	@ frame_needed = 0, uses_anonymous_args = 0
	mov	r3, r2
	push	{r4, r5, r6, lr}
	mov	r2, r1
	cbnz	r1, .L69
.L61:
	mov	r0, r2
	pop	{r4, r5, r6, pc}
.L64:
	ldr	r4, [r4, #8]
	subs	r0, r0, r1
	cbnz	r4, .L63
	mov	r1, r0
	ldr	r0, .L70
	bl	NAND_Print
	movs	r2, #1
	b	.L61
.L69:
	ldr	r1, .L70+4
	ldr	r4, [r1, #8]
.L63:
	ldr	r1, [r4]
	cmp	r1, r0
	bls	.L64
	ldr	r5, [r4, #48]
	mov	r1, r0
	mov	r0, r4
	mov	ip, r5
	pop	{r4, r5, r6, lr}
	bx	ip
.L71:
	.align	2
.L70:
	.word	.LC9
	.word	.LANCHOR0
	.size	nftl_write, .-nftl_write
	.section	.text.nftl_discard,"ax",%progbits
	.align	1
	.global	nftl_discard
	.syntax unified
	.thumb
	.thumb_func
	.fpu softvfp
	.type	nftl_discard, %function
nftl_discard:
	@ args = 0, pretend = 0, frame = 0
	@ frame_needed = 0, uses_anonymous_args = 0
	push	{r4, lr}
	mov	r2, r1
	cbnz	r1, .L81
.L73:
	mov	r0, r2
	pop	{r4, pc}
.L76:
	ldr	r3, [r3, #8]
	subs	r0, r0, r1
	cbnz	r3, .L75
	mov	r1, r0
	ldr	r0, .L82
	bl	NAND_Print
	movs	r2, #1
	b	.L73
.L81:
	ldr	r3, .L82+4
	ldr	r3, [r3, #8]
.L75:
	ldr	r1, [r3]
	cmp	r1, r0
	bls	.L76
	ldr	r4, [r3, #56]
	mov	r1, r0
	mov	r0, r3
	mov	r3, r4
	pop	{r4, lr}
	bx	r3
.L83:
	.align	2
.L82:
	.word	.LC9
	.word	.LANCHOR0
	.size	nftl_discard, .-nftl_discard
	.section	.text.nftl_flush_write_cache,"ax",%progbits
	.align	1
	.global	nftl_flush_write_cache
	.syntax unified
	.thumb
	.thumb_func
	.fpu softvfp
	.type	nftl_flush_write_cache, %function
nftl_flush_write_cache:
	@ args = 0, pretend = 0, frame = 0
	@ frame_needed = 0, uses_anonymous_args = 0
	ldr	r3, .L87
	push	{r4, lr}
	ldr	r4, [r3, #8]
.L85:
	cbnz	r4, .L86
	mov	r0, r4
	pop	{r4, pc}
.L86:
	ldr	r3, [r4, #52]
	mov	r0, r4
	movw	r1, #65535
	blx	r3
	ldr	r4, [r4, #8]
	b	.L85
.L88:
	.align	2
.L87:
	.word	.LANCHOR0
	.size	nftl_flush_write_cache, .-nftl_flush_write_cache
	.section	.text.nftl_malloc,"ax",%progbits
	.align	1
	.global	nftl_malloc
	.syntax unified
	.thumb
	.thumb_func
	.fpu softvfp
	.type	nftl_malloc, %function
nftl_malloc:
	@ args = 0, pretend = 0, frame = 0
	@ frame_needed = 0, uses_anonymous_args = 0
	cmp	r0, #1572864
	push	{r4, lr}
	mov	r4, r0
	bls	.L90
	mov	r1, r0
	ldr	r0, .L91
	bl	NAND_Print
.L90:
	mov	r0, r4
	pop	{r4, lr}
	b	NAND_Malloc
.L92:
	.align	2
.L91:
	.word	.LC11
	.size	nftl_malloc, .-nftl_malloc
	.section	.text.nftl_free,"ax",%progbits
	.align	1
	.global	nftl_free
	.syntax unified
	.thumb
	.thumb_func
	.fpu softvfp
	.type	nftl_free, %function
nftl_free:
	@ args = 0, pretend = 0, frame = 0
	@ frame_needed = 0, uses_anonymous_args = 0
	@ link register save eliminated.
	movs	r1, #0
	b	NAND_Free
	.size	nftl_free, .-nftl_free
	.section	.text.add_nftl_blk_list,"ax",%progbits
	.align	1
	.global	add_nftl_blk_list
	.syntax unified
	.thumb
	.thumb_func
	.fpu softvfp
	.type	add_nftl_blk_list, %function
add_nftl_blk_list:
	@ args = 0, pretend = 0, frame = 0
	@ frame_needed = 0, uses_anonymous_args = 0
	@ link register save eliminated.
	movs	r3, #0
	str	r3, [r1, #8]
.L95:
	ldr	r3, [r0, #8]
	cbnz	r3, .L96
	str	r1, [r0, #8]
	bx	lr
.L96:
	mov	r0, r3
	b	.L95
	.size	add_nftl_blk_list, .-add_nftl_blk_list
	.section	.text.del_last_nftl_blk,"ax",%progbits
	.align	1
	.global	del_last_nftl_blk
	.syntax unified
	.thumb
	.thumb_func
	.fpu softvfp
	.type	del_last_nftl_blk, %function
del_last_nftl_blk:
	@ args = 0, pretend = 0, frame = 0
	@ frame_needed = 0, uses_anonymous_args = 0
	@ link register save eliminated.
.L98:
	ldr	r3, [r0, #8]
	cbz	r3, .L97
	ldr	r2, [r3, #8]
	cbnz	r2, .L101
	str	r2, [r0, #8]
.L97:
	mov	r0, r3
	bx	lr
.L101:
	mov	r0, r3
	b	.L98
	.size	del_last_nftl_blk, .-del_last_nftl_blk
	.section	.text.nftl_support_boot_check_crc_from_dts,"ax",%progbits
	.align	1
	.global	nftl_support_boot_check_crc_from_dts
	.syntax unified
	.thumb
	.thumb_func
	.fpu softvfp
	.type	nftl_support_boot_check_crc_from_dts, %function
nftl_support_boot_check_crc_from_dts:
	@ args = 0, pretend = 0, frame = 0
	@ frame_needed = 0, uses_anonymous_args = 0
	push	{r3, lr}
	bl	nand_get_support_boot_check_crc
	adds	r0, r0, #0
	it	ne
	movne	r0, #1
	pop	{r3, pc}
	.size	nftl_support_boot_check_crc_from_dts, .-nftl_support_boot_check_crc_from_dts
	.section	.text._nftl_nand_read_history_page,"ax",%progbits
	.align	1
	.global	_nftl_nand_read_history_page
	.syntax unified
	.thumb
	.thumb_func
	.fpu softvfp
	.type	_nftl_nand_read_history_page, %function
_nftl_nand_read_history_page:
	@ args = 0, pretend = 0, frame = 16
	@ frame_needed = 0, uses_anonymous_args = 0
	push	{r4, r5, lr}
	mov	r4, r0
	ldr	r2, [r4, #1968]
	sub	sp, sp, #20
	ldr	r3, [r0]
	ldr	r0, [r3, #4]
	ldrd	r3, r5, [r2, #80]
	adds	r3, r3, #1
	adc	r5, r5, #0
	strd	r3, r5, [r2, #80]
	ldrh	r3, [r1, #2]
	strh	r3, [sp, #2]	@ movhi
	ldrh	r3, [r1]
	strh	r3, [sp]	@ movhi
	ldrh	r3, [r1, #4]
	strh	r3, [sp, #4]	@ movhi
	ldr	r3, [r1, #8]
	str	r3, [sp, #8]
	ldr	r3, [r1, #12]
	mov	r1, sp
	str	r3, [sp, #12]
	ldr	r3, [r0, #88]
	blx	r3
	adds	r3, r0, #2
	itttt	eq
	ldreq	r2, [r4, #1968]
	ldreq	r3, [r2, #132]
	addeq	r3, r3, #1
	streq	r3, [r2, #132]
	add	sp, sp, #20
	@ sp needed
	pop	{r4, r5, pc}
	.size	_nftl_nand_read_history_page, .-_nftl_nand_read_history_page
	.section	.text.sandisk_A19_dsp_on,"ax",%progbits
	.align	1
	.global	sandisk_A19_dsp_on
	.syntax unified
	.thumb
	.thumb_func
	.fpu softvfp
	.type	sandisk_A19_dsp_on, %function
sandisk_A19_dsp_on:
	@ args = 0, pretend = 0, frame = 0
	@ frame_needed = 0, uses_anonymous_args = 0
	ldr	r3, .L106
	push	{r4, lr}
	ldr	r1, [r0]
	ldr	r0, [r3]
	bl	nci_get_from_nsi
	mov	r4, r0
	bl	nand_enable_chip
	ldr	r0, [r4, #268]
	bl	ndfc_disable_randomize
	movs	r2, #0
	movs	r1, #38
	mov	r0, r4
	bl	set_one_cmd
	mov	r0, r4
	bl	nand_disable_chip
	movs	r0, #0
	pop	{r4, pc}
.L107:
	.align	2
.L106:
	.word	g_nsi
	.size	sandisk_A19_dsp_on, .-sandisk_A19_dsp_on
	.section	.text.sandisk_A19_cmd25,"ax",%progbits
	.align	1
	.global	sandisk_A19_cmd25
	.syntax unified
	.thumb
	.thumb_func
	.fpu softvfp
	.type	sandisk_A19_cmd25, %function
sandisk_A19_cmd25:
	@ args = 0, pretend = 0, frame = 0
	@ frame_needed = 0, uses_anonymous_args = 0
	ldr	r3, .L109
	push	{r4, lr}
	ldr	r1, [r0]
	ldr	r0, [r3]
	bl	nci_get_from_nsi
	mov	r4, r0
	bl	nand_enable_chip
	ldr	r0, [r4, #268]
	bl	ndfc_disable_randomize
	movs	r2, #0
	movs	r1, #37
	mov	r0, r4
	bl	set_one_cmd
	mov	r0, r4
	bl	nand_disable_chip
	movs	r0, #0
	pop	{r4, pc}
.L110:
	.align	2
.L109:
	.word	g_nsi
	.size	sandisk_A19_cmd25, .-sandisk_A19_cmd25
	.section	.text.sandisk_A19_set_lmflgfix_next,"ax",%progbits
	.align	1
	.global	sandisk_A19_set_lmflgfix_next
	.syntax unified
	.thumb
	.thumb_func
	.fpu softvfp
	.type	sandisk_A19_set_lmflgfix_next, %function
sandisk_A19_set_lmflgfix_next:
	@ args = 0, pretend = 0, frame = 8
	@ frame_needed = 0, uses_anonymous_args = 0
	ldr	r3, .L116
	push	{r4, r5, r6, r7, r8, lr}
	mov	r5, r1
	sub	sp, sp, #24
	ldr	r1, [r0]
	add	r7, sp, #22
	ldr	r0, [r3]
	bl	nci_get_from_nsi
	mov	r4, r0
	bl	nand_enable_chip
	ldr	r0, [r4, #268]
	bl	ndfc_disable_randomize
	movs	r2, #0
	movs	r1, #92
	mov	r0, r4
	bl	set_one_cmd
	movs	r2, #0
	movs	r1, #197
	mov	r0, r4
	bl	set_one_cmd
	movs	r3, #0
	movs	r2, #1
	strb	r3, [sp, #21]
	movs	r3, #85
	strb	r3, [sp, #23]
	add	r1, sp, #23
	add	r3, sp, #21
	strd	r2, r2, [sp, #4]
	str	r7, [sp]
	mov	r0, r4
	strb	r2, [sp, #22]
	bl	set_cmd_with_nand_bus
	ldr	r3, .L116+4
	ldrb	r3, [r3]	@ zero_extendqisi2
	cmp	r3, #52
	bne	.L112
	movs	r3, #34
.L115:
	strb	r5, [sp, #22]
	movs	r5, #1
	strb	r3, [sp, #21]
	mov	r8, #85
	add	r3, sp, #21
	mov	r2, r5
	add	r1, sp, #23
	strd	r5, r5, [sp, #4]
	str	r7, [sp]
	mov	r0, r4
	movs	r6, #0
	strb	r8, [sp, #23]
	bl	set_cmd_with_nand_bus
	add	r3, sp, #21
	mov	r2, r5
	add	r1, sp, #23
	strd	r5, r5, [sp, #4]
	str	r7, [sp]
	mov	r0, r4
	strb	r6, [sp, #21]
	strb	r6, [sp, #22]
	strb	r8, [sp, #23]
	bl	set_cmd_with_nand_bus
	mov	r0, r4
	bl	nand_disable_chip
	mov	r0, r6
	add	sp, sp, #24
	@ sp needed
	pop	{r4, r5, r6, r7, r8, pc}
.L112:
	cmp	r3, #53
	ite	eq
	moveq	r3, #37
	movne	r3, #35
	b	.L115
.L117:
	.align	2
.L116:
	.word	g_nsi
	.word	.LANCHOR1
	.size	sandisk_A19_set_lmflgfix_next, .-sandisk_A19_set_lmflgfix_next
	.section	.text.sandisk_A19_readretry_init,"ax",%progbits
	.align	1
	.global	sandisk_A19_readretry_init
	.syntax unified
	.thumb
	.thumb_func
	.fpu softvfp
	.type	sandisk_A19_readretry_init, %function
sandisk_A19_readretry_init:
	@ args = 0, pretend = 0, frame = 0
	@ frame_needed = 0, uses_anonymous_args = 0
	ldr	r3, [r0, #272]
	ldr	r2, .L121
	push	{r4, lr}
	movs	r4, #0
	ldr	r3, [r3, #52]
	str	r4, [r0, #176]
	ubfx	r1, r3, #16, #8
	ldr	r0, .L121+4
	strb	r1, [r2]
	lsrs	r2, r3, #8
	strb	r2, [r0]
	ldr	r0, .L121+8
	strb	r3, [r0]
	sub	r3, r1, #50
	cmp	r3, #3
	bls	.L119
	ldr	r0, .L121+12
	bl	NAND_Print
	mvn	r0, #98
.L118:
	pop	{r4, pc}
.L119:
	uxtb	r1, r2
	ldr	r0, .L121+16
	bl	NAND_Print_DBG
	mov	r0, r4
	b	.L118
.L122:
	.align	2
.L121:
	.word	.LANCHOR1
	.word	.LANCHOR2
	.word	.LANCHOR3
	.word	.LC12
	.word	.LC13
	.size	sandisk_A19_readretry_init, .-sandisk_A19_readretry_init
	.section	.text.sandisk_A19_readretry_exit,"ax",%progbits
	.align	1
	.global	sandisk_A19_readretry_exit
	.syntax unified
	.thumb
	.thumb_func
	.fpu softvfp
	.type	sandisk_A19_readretry_exit, %function
sandisk_A19_readretry_exit:
	@ args = 0, pretend = 0, frame = 0
	@ frame_needed = 0, uses_anonymous_args = 0
	@ link register save eliminated.
	movs	r0, #0
	bx	lr
	.size	sandisk_A19_readretry_exit, .-sandisk_A19_readretry_exit
	.section	.text.sandisk_A19_read_retry_clock_save,"ax",%progbits
	.align	1
	.global	sandisk_A19_read_retry_clock_save
	.syntax unified
	.thumb
	.thumb_func
	.fpu softvfp
	.type	sandisk_A19_read_retry_clock_save, %function
sandisk_A19_read_retry_clock_save:
	@ args = 0, pretend = 0, frame = 0
	@ frame_needed = 0, uses_anonymous_args = 0
	push	{r4, lr}
	mov	r4, r0
	ldr	r3, .L125
	ldr	r0, [r0, #268]
	ldr	r3, [r3]
	ldr	r2, .L125+4
	ldr	r1, .L125+8
	ldr	r0, [r0, #8]
	blx	r3
	ldr	r0, [r4, #268]
	movs	r2, #20
	ldr	r3, .L125+12
	movs	r1, #10
	ldr	r0, [r0, #8]
	ldr	r3, [r3]
	blx	r3
	movs	r0, #0
	pop	{r4, pc}
.L126:
	.align	2
.L125:
	.word	NAND_GetClk
	.word	.LANCHOR4
	.word	.LANCHOR5
	.word	NAND_SetClk
	.size	sandisk_A19_read_retry_clock_save, .-sandisk_A19_read_retry_clock_save
	.section	.text.sandisk_A19_read_retry_clock_recover,"ax",%progbits
	.align	1
	.global	sandisk_A19_read_retry_clock_recover
	.syntax unified
	.thumb
	.thumb_func
	.fpu softvfp
	.type	sandisk_A19_read_retry_clock_recover, %function
sandisk_A19_read_retry_clock_recover:
	@ args = 0, pretend = 0, frame = 0
	@ frame_needed = 0, uses_anonymous_args = 0
	push	{r3, lr}
	ldr	r0, [r0, #268]
	ldr	r3, .L128
	ldr	r2, .L128+4
	ldr	r1, .L128+8
	ldr	r3, [r3]
	ldr	r2, [r2]
	ldr	r1, [r1]
	ldr	r0, [r0, #8]
	blx	r3
	movs	r0, #0
	pop	{r3, pc}
.L129:
	.align	2
.L128:
	.word	NAND_SetClk
	.word	.LANCHOR4
	.word	.LANCHOR5
	.size	sandisk_A19_read_retry_clock_recover, .-sandisk_A19_read_retry_clock_recover
	.section	.text.sandisk_A19_vender_set_param,"ax",%progbits
	.align	1
	.global	sandisk_A19_vender_set_param
	.syntax unified
	.thumb
	.thumb_func
	.fpu softvfp
	.type	sandisk_A19_vender_set_param, %function
sandisk_A19_vender_set_param:
	@ args = 0, pretend = 0, frame = 0
	@ frame_needed = 0, uses_anonymous_args = 0
	push	{r0, r1, r2, r3, r4, lr}
	movs	r4, #1
	movs	r3, #4
	str	r1, [sp]
	strd	r3, r4, [sp, #4]
	mov	r3, r2
	ldr	r1, .L131
	mov	r2, r4
	bl	set_cmd_with_nand_bus
	add	sp, sp, #16
	@ sp needed
	pop	{r4, pc}
.L132:
	.align	2
.L131:
	.word	.LANCHOR6
	.size	sandisk_A19_vender_set_param, .-sandisk_A19_vender_set_param
	.section	.text.sandisk_A19_set_readretry,"ax",%progbits
	.align	1
	.global	sandisk_A19_set_readretry
	.syntax unified
	.thumb
	.thumb_func
	.fpu softvfp
	.type	sandisk_A19_set_readretry, %function
sandisk_A19_set_readretry:
	@ args = 0, pretend = 0, frame = 0
	@ frame_needed = 0, uses_anonymous_args = 0
	push	{r3, r4, r5, lr}
	mov	r4, r0
	bl	nand_enable_chip
	ldr	r0, [r4, #268]
	bl	ndfc_disable_randomize
	ldr	r3, .L138
	ldr	r1, [r4, #176]
	ldrb	r3, [r3]	@ zero_extendqisi2
	cmp	r3, #52
	bne	.L134
	ldr	r3, .L138+4
	add	r1, r3, r1, lsl #2
.L135:
	movs	r3, #1
	ldr	r2, .L138+8
	mov	r0, r4
	bl	sandisk_A19_vender_set_param
	movs	r2, #0
	mov	r5, r0
	movs	r1, #93
	mov	r0, r4
	bl	set_one_cmd
	mov	r0, r4
	bl	nand_disable_chip
	mov	r0, r5
	pop	{r3, r4, r5, pc}
.L134:
	cmp	r3, #53
	lsl	r1, r1, #2
	ite	eq
	ldreq	r3, .L138+12
	ldrne	r3, .L138+16
	add	r1, r1, r3
	b	.L135
.L139:
	.align	2
.L138:
	.word	.LANCHOR1
	.word	.LANCHOR7
	.word	.LANCHOR10
	.word	.LANCHOR8
	.word	.LANCHOR9
	.size	sandisk_A19_set_readretry, .-sandisk_A19_set_readretry
	.section	.text.sandisk_A19_exit_readretry,"ax",%progbits
	.align	1
	.global	sandisk_A19_exit_readretry
	.syntax unified
	.thumb
	.thumb_func
	.fpu softvfp
	.type	sandisk_A19_exit_readretry, %function
sandisk_A19_exit_readretry:
	@ args = 0, pretend = 0, frame = 8
	@ frame_needed = 0, uses_anonymous_args = 0
	push	{r0, r1, r2, r4, r5, lr}
	movs	r3, #0
	mov	r4, r0
	add	r5, sp, #8
	str	r3, [r5, #-4]!
	bl	nand_enable_chip
	ldr	r0, [r4, #268]
	bl	ndfc_disable_randomize
	movs	r2, #1
	movs	r1, #255
	mov	r0, r4
	bl	set_one_cmd
	mov	r1, r5
	movs	r3, #1
	ldr	r2, .L141
	mov	r0, r4
	bl	sandisk_A19_vender_set_param
	mov	r5, r0
	mov	r0, r4
	bl	nand_disable_chip
	mov	r0, r5
	add	sp, sp, #12
	@ sp needed
	pop	{r4, r5, pc}
.L142:
	.align	2
.L141:
	.word	.LANCHOR10
	.size	sandisk_A19_exit_readretry, .-sandisk_A19_exit_readretry
	.section	.text.sandisk_A19_special_init,"ax",%progbits
	.align	1
	.global	sandisk_A19_special_init
	.syntax unified
	.thumb
	.thumb_func
	.fpu softvfp
	.type	sandisk_A19_special_init, %function
sandisk_A19_special_init:
	@ args = 0, pretend = 0, frame = 0
	@ frame_needed = 0, uses_anonymous_args = 0
	push	{r3, r4, r5, lr}
	movs	r4, #0
	ldr	r3, .L148
	ldr	r3, [r3]
	ldr	r5, [r3, #8]
.L144:
	cbnz	r5, .L145
	ldr	r3, .L148+4
	ldrb	r1, [r3]	@ zero_extendqisi2
	ldr	r3, .L148+8
	ldrb	r2, [r3]	@ zero_extendqisi2
	ldr	r3, .L148+12
	ldrb	r3, [r3]	@ zero_extendqisi2
	cbnz	r4, .L146
	ldr	r0, .L148+16
	ldr	r5, .L148+20
	str	r5, [r0]
	ldr	r0, .L148+24
	bl	NAND_Print_DBG
.L143:
	mov	r0, r4
	pop	{r3, r4, r5, pc}
.L145:
	mov	r0, r5
	bl	sandisk_A19_readretry_init
	ldr	r5, [r5]
	orrs	r4, r4, r0
	b	.L144
.L146:
	ldr	r0, .L148+28
	bl	NAND_Print
	b	.L143
.L149:
	.align	2
.L148:
	.word	g_nsi
	.word	.LANCHOR1
	.word	.LANCHOR2
	.word	.LANCHOR3
	.word	df_read_page_end
	.word	sandisk_A19_read_page_end
	.word	.LC14
	.word	.LC15
	.size	sandisk_A19_special_init, .-sandisk_A19_special_init
	.section	.text.sandisk_A19_special_exit,"ax",%progbits
	.align	1
	.global	sandisk_A19_special_exit
	.syntax unified
	.thumb
	.thumb_func
	.fpu softvfp
	.type	sandisk_A19_special_exit, %function
sandisk_A19_special_exit:
	@ args = 0, pretend = 0, frame = 0
	@ frame_needed = 0, uses_anonymous_args = 0
	ldr	r3, .L161
	push	{r4, r5, r6, lr}
	movs	r6, #0
	ldr	r3, [r3]
	ldr	r4, [r3, #8]
.L151:
	cbnz	r4, .L154
	ldr	r0, .L161+4
	mov	r5, r4
	bl	NAND_Print_DBG
	b	.L150
.L154:
	ldrb	r3, [r4, #262]	@ zero_extendqisi2
	cbz	r3, .L152
	str	r6, [r4, #196]
	mov	r0, r4
	bl	sandisk_toggle_vendor_specific_setting
	mov	r5, r0
	cbz	r0, .L152
	ldr	r1, .L161+8
	ldr	r0, .L161+12
	bl	NAND_Print
.L150:
	mov	r0, r5
	pop	{r4, r5, r6, pc}
.L152:
	ldr	r4, [r4]
	b	.L151
.L162:
	.align	2
.L161:
	.word	g_nsi
	.word	.LC17
	.word	.LANCHOR11
	.word	.LC16
	.size	sandisk_A19_special_exit, .-sandisk_A19_special_exit
	.section	.text.sandisk_A19_check_bad_block_first_burn,"ax",%progbits
	.align	1
	.global	sandisk_A19_check_bad_block_first_burn
	.syntax unified
	.thumb
	.thumb_func
	.fpu softvfp
	.type	sandisk_A19_check_bad_block_first_burn, %function
sandisk_A19_check_bad_block_first_burn:
	@ args = 0, pretend = 0, frame = 0
	@ frame_needed = 0, uses_anonymous_args = 0
	ldr	r3, .L167
	push	{r0, r1, r2, r4, r5, r6, r7, r8, r10, lr}
	mov	r8, r0
	ldr	r1, [r0]
	ldr	r0, [r3]
	bl	nci_get_from_nsi
	ldr	r4, [r0, #268]
	mov	r5, r0
	ldr	r2, [r0, #20]
	ldr	r1, [r8, #4]
	ldr	r3, [r4, #12]
	add	r10, r4, #32
	ldr	r0, [r0, #24]
	cmp	r2, r3
	bcs	.L164
	cmp	r1, r0
	bcc	.L165
.L164:
	strd	r1, r0, [sp]
	ldr	r1, [r4, #8]
	mvn	r4, #9
	ldr	r0, .L167+4
	bl	NAND_Print
.L163:
	mov	r0, r4
	add	sp, sp, #12
	@ sp needed
	pop	{r4, r5, r6, r7, r8, r10, pc}
.L165:
	mov	r0, r4
	movs	r6, #1
	bl	ndfc_disable_randomize
	mov	r0, r5
	movs	r7, #0
	bl	nand_read_chip_status_ready
	mov	r0, r5
	bl	nand_enable_chip
	mov	r0, r10
	bl	ndfc_clean_cmd_seq
	movs	r3, #162
	ldrd	r1, r2, [r8, #4]
	strd	r6, r3, [r4, #40]
	movs	r3, #128
	strd	r6, r3, [r4, #104]
	str	r7, [r4, #32]
	strd	r6, r7, [r4, #48]
	strd	r6, r7, [r4, #112]
	ldr	r0, [r5, #36]
	bl	get_row_addr
	movs	r3, #5
	mov	r2, r0
	str	r3, [r4, #136]
	add	r3, r4, #120
	str	r3, [sp]
	movs	r1, #2
	movs	r3, #3
	mov	r0, r7
	bl	fill_cmd_addr
	movs	r3, #16
	strd	r6, r6, [r4, #176]
	strd	r6, r3, [r4, #168]
	mov	r1, r10
	ldr	r0, [r5, #268]
	bl	ndfc_execute_cmd
	mov	r0, r5
	bl	nand_read_chip_status_ready
	mov	r4, r0
	mov	r0, r5
	bl	nand_disable_chip
	b	.L163
.L168:
	.align	2
.L167:
	.word	g_nsi
	.word	.LC18
	.size	sandisk_A19_check_bad_block_first_burn, .-sandisk_A19_check_bad_block_first_burn
	.section	.text.hynix20nm_vender_set_param,"ax",%progbits
	.align	1
	.global	hynix20nm_vender_set_param
	.syntax unified
	.thumb
	.thumb_func
	.fpu softvfp
	.type	hynix20nm_vender_set_param, %function
hynix20nm_vender_set_param:
	@ args = 0, pretend = 0, frame = 8
	@ frame_needed = 0, uses_anonymous_args = 0
	push	{r4, r5, r6, r7, r8, r10, lr}
	mov	r4, r2
	sub	sp, sp, #28
	mov	r7, r3
	mov	r6, r0
	movs	r3, #54
	add	r8, sp, #24
	add	r7, r7, r4
	mov	r10, #1
	mov	r5, r1
	strb	r3, [r8, #-1]!
	bl	nand_enable_chip
	ldr	r0, [r6, #268]
	bl	ndfc_disable_randomize
.L170:
	cmp	r4, r7
	bne	.L171
	mov	r0, r6
	bl	nand_disable_chip
	movs	r0, #0
	add	sp, sp, #28
	@ sp needed
	pop	{r4, r5, r6, r7, r8, r10, pc}
.L171:
	mov	r3, r4
	str	r5, [sp]
	movs	r2, #0
	mov	r1, r8
	strd	r10, r10, [sp, #4]
	mov	r0, r6
	bl	set_cmd_with_nand_bus
	movs	r2, #0
	movs	r1, #22
	mov	r0, r6
	adds	r4, r4, #1
	bl	set_one_cmd
	adds	r5, r5, #1
	b	.L170
	.size	hynix20nm_vender_set_param, .-hynix20nm_vender_set_param
	.section	.text.hynix20nm_set_readretry,"ax",%progbits
	.align	1
	.global	hynix20nm_set_readretry
	.syntax unified
	.thumb
	.thumb_func
	.fpu softvfp
	.type	hynix20nm_set_readretry, %function
hynix20nm_set_readretry:
	@ args = 0, pretend = 0, frame = 8
	@ frame_needed = 0, uses_anonymous_args = 0
	ldr	r3, .L179
	push	{r0, r1, r2, r4, r5, r6, r7, lr}
	ldr	r1, [r0, #176]
	ldrb	r3, [r3]	@ zero_extendqisi2
	cmp	r1, r3
	bhi	.L178
	ldr	r5, .L179+4
	lsls	r1, r1, #3
	movs	r2, #0
	ldrb	r3, [r5]	@ zero_extendqisi2
.L174:
	cmp	r3, r2
	bhi	.L175
	ldr	r7, .L179+8
	mov	r1, sp
	ldr	r2, .L179+12
	movs	r4, #0
	bl	hynix20nm_vender_set_param
	mov	r6, r0
	ldr	r0, .L179+16
	bl	NAND_Print_DBG
.L176:
	ldrb	r3, [r5]	@ zero_extendqisi2
	cmp	r3, r4
	bhi	.L177
	ldr	r0, .L179+20
	bl	NAND_Print_DBG
.L172:
	mov	r0, r6
	add	sp, sp, #12
	@ sp needed
	pop	{r4, r5, r6, r7, pc}
.L175:
	adds	r4, r1, r2
	add	r4, r4, r0
	ldrb	r4, [r4, #48]	@ zero_extendqisi2
	strb	r4, [sp, r2]
	adds	r2, r2, #1
	b	.L174
.L177:
	ldrb	r1, [sp, r4]	@ zero_extendqisi2
	mov	r0, r7
	bl	NAND_Print_DBG
	adds	r4, r4, #1
	b	.L176
.L178:
	mvn	r6, #91
	b	.L172
.L180:
	.align	2
.L179:
	.word	.LANCHOR12
	.word	.LANCHOR13
	.word	.LC20
	.word	.LANCHOR14
	.word	.LC19
	.word	.LC7
	.size	hynix20nm_set_readretry, .-hynix20nm_set_readretry
	.section	.text.hynix20nm_vender_get_param,"ax",%progbits
	.align	1
	.global	hynix20nm_vender_get_param
	.syntax unified
	.thumb
	.thumb_func
	.fpu softvfp
	.type	hynix20nm_vender_get_param, %function
hynix20nm_vender_get_param:
	@ args = 0, pretend = 0, frame = 8
	@ frame_needed = 0, uses_anonymous_args = 0
	push	{r4, r5, r6, r7, r8, r10, lr}
	mov	r7, r3
	sub	sp, sp, #20
	mov	r4, r2
	mov	r6, r0
	mov	r5, r1
	add	r7, r7, r4
	mov	r10, #1
	bl	nand_enable_chip
	ldr	r0, [r6, #268]
	add	r8, sp, #16
	bl	ndfc_disable_randomize
	movs	r3, #55
	strb	r3, [r8, #-1]!
.L182:
	cmp	r4, r7
	bne	.L183
	mov	r0, r6
	bl	nand_disable_chip
	movs	r0, #0
	add	sp, sp, #20
	@ sp needed
	pop	{r4, r5, r6, r7, r8, r10, pc}
.L183:
	mov	r3, r5
	mov	r2, r4
	str	r10, [sp]
	mov	r1, r8
	mov	r0, r6
	adds	r4, r4, #1
	bl	get_data_with_nand_bus_one_cmd
	adds	r5, r5, #1
	b	.L182
	.size	hynix20nm_vender_get_param, .-hynix20nm_vender_get_param
	.section	.text.hynix20nm_lsb_init,"ax",%progbits
	.align	1
	.global	hynix20nm_lsb_init
	.syntax unified
	.thumb
	.thumb_func
	.fpu softvfp
	.type	hynix20nm_lsb_init, %function
hynix20nm_lsb_init:
	@ args = 0, pretend = 0, frame = 0
	@ frame_needed = 0, uses_anonymous_args = 0
	@ link register save eliminated.
	ldr	r3, [r0, #272]
	ldr	r1, .L188
	ldr	r2, [r3, #52]
	ubfx	r3, r2, #16, #8
	strb	r3, [r1]
	lsrs	r0, r2, #8
	ldr	r1, .L188+4
	cmp	r3, #2
	strb	r0, [r1]
	ldr	r1, .L188+8
	strb	r2, [r1]
	bne	.L185
	ldr	r3, .L188+12
	movs	r2, #4
	strb	r2, [r3]
	movs	r2, #176
	ldr	r3, .L188+16
	strb	r2, [r3]
	movs	r2, #177
	strb	r2, [r3, #1]
	movs	r2, #160
	strb	r2, [r3, #2]
	movs	r2, #161
.L187:
	strb	r2, [r3, #3]
	movs	r2, #10
	ldr	r3, .L188+20
	strb	r2, [r3]
	strb	r2, [r3, #1]
	strb	r2, [r3, #2]
	strb	r2, [r3, #3]
.L186:
	movs	r0, #0
	bx	lr
.L185:
	cmp	r3, #3
	bne	.L186
	ldr	r3, .L188+12
	movs	r2, #4
	strb	r2, [r3]
	movs	r2, #160
	ldr	r3, .L188+16
	strb	r2, [r3]
	movs	r2, #161
	strb	r2, [r3, #1]
	movs	r2, #167
	strb	r2, [r3, #2]
	movs	r2, #168
	b	.L187
.L189:
	.align	2
.L188:
	.word	.LANCHOR15
	.word	.LANCHOR12
	.word	.LANCHOR13
	.word	.LANCHOR16
	.word	.LANCHOR17
	.word	.LANCHOR18
	.size	hynix20nm_lsb_init, .-hynix20nm_lsb_init
	.section	.text.hynix20nm_lsb_enable,"ax",%progbits
	.align	1
	.global	hynix20nm_lsb_enable
	.syntax unified
	.thumb
	.thumb_func
	.fpu softvfp
	.type	hynix20nm_lsb_enable, %function
hynix20nm_lsb_enable:
	@ args = 0, pretend = 0, frame = 8
	@ frame_needed = 0, uses_anonymous_args = 0
	push	{r0, r1, r2, r4, r5, r6, r7, lr}
	mov	r5, r0
	ldr	r4, .L193
	ldr	r2, .L193+4
	ldrb	r3, [r4]	@ zero_extendqisi2
	ldr	r1, .L193+8
	bl	hynix20nm_vender_get_param
	ldr	r6, .L193+12
	movs	r2, #0
	ldrb	r3, [r4]	@ zero_extendqisi2
	add	r1, sp, #4
	ldr	r4, .L193+8
.L191:
	cmp	r3, r2
	bhi	.L192
	ldr	r2, .L193+4
	mov	r0, r5
	bl	hynix20nm_vender_set_param
	movs	r0, #0
	add	sp, sp, #12
	@ sp needed
	pop	{r4, r5, r6, r7, pc}
.L192:
	ldrb	r0, [r2, r4]	@ zero_extendqisi2
	ldrb	r7, [r2, r6]	@ zero_extendqisi2
	add	r0, r0, r7
	strb	r0, [r1, r2]
	adds	r2, r2, #1
	b	.L191
.L194:
	.align	2
.L193:
	.word	.LANCHOR16
	.word	.LANCHOR17
	.word	.LANCHOR19
	.word	.LANCHOR18
	.size	hynix20nm_lsb_enable, .-hynix20nm_lsb_enable
	.section	.text.hynix20nm_lsb_disable,"ax",%progbits
	.align	1
	.global	hynix20nm_lsb_disable
	.syntax unified
	.thumb
	.thumb_func
	.fpu softvfp
	.type	hynix20nm_lsb_disable, %function
hynix20nm_lsb_disable:
	@ args = 0, pretend = 0, frame = 0
	@ frame_needed = 0, uses_anonymous_args = 0
	push	{r3, lr}
	ldr	r3, .L196
	ldr	r2, .L196+4
	ldrb	r3, [r3]	@ zero_extendqisi2
	ldr	r1, .L196+8
	bl	hynix20nm_vender_set_param
	movs	r0, #0
	pop	{r3, pc}
.L197:
	.align	2
.L196:
	.word	.LANCHOR16
	.word	.LANCHOR17
	.word	.LANCHOR19
	.size	hynix20nm_lsb_disable, .-hynix20nm_lsb_disable
	.section	.text.hynix20nm_lsb_exit,"ax",%progbits
	.align	1
	.global	hynix20nm_lsb_exit
	.syntax unified
	.thumb
	.thumb_func
	.fpu softvfp
	.type	hynix20nm_lsb_exit, %function
hynix20nm_lsb_exit:
	@ args = 0, pretend = 0, frame = 0
	@ frame_needed = 0, uses_anonymous_args = 0
	push	{r4, lr}
	mov	r4, r0
	bl	nand_enable_chip
	ldr	r0, [r4, #268]
	bl	ndfc_disable_randomize
	movs	r2, #0
	mov	r0, r4
	mov	r1, r2
	bl	set_one_cmd
	movs	r1, #0
	mov	r0, r4
	bl	set_one_addr
	movs	r1, #0
	mov	r0, r4
	bl	set_one_addr
	movs	r1, #0
	mov	r0, r4
	bl	set_one_addr
	movs	r1, #0
	mov	r0, r4
	bl	set_one_addr
	movs	r1, #0
	mov	r0, r4
	bl	set_one_addr
	movs	r2, #1
	movs	r1, #48
	mov	r0, r4
	bl	set_one_cmd
	ldr	r0, .L199
	bl	NAND_Print_DBG
	mov	r0, r4
	bl	nand_disable_chip
	movs	r0, #0
	pop	{r4, pc}
.L200:
	.align	2
.L199:
	.word	.LC21
	.size	hynix20nm_lsb_exit, .-hynix20nm_lsb_exit
	.section	.text.hynix20nm_vender_get_param_otp_hynix,"ax",%progbits
	.align	1
	.global	hynix20nm_vender_get_param_otp_hynix
	.syntax unified
	.thumb
	.thumb_func
	.fpu softvfp
	.type	hynix20nm_vender_get_param_otp_hynix, %function
hynix20nm_vender_get_param_otp_hynix:
	@ args = 0, pretend = 0, frame = 16
	@ frame_needed = 0, uses_anonymous_args = 0
	push	{r4, r5, r6, r7, lr}
	movs	r3, #0
	sub	sp, sp, #36
	mov	r4, r0
	strh	r3, [sp, #28]	@ movhi
	ldr	r3, .L219
	ldrb	r3, [r3]	@ zero_extendqisi2
	cmp	r3, #2
	bne	.L202
	movw	r3, #52479
	strh	r3, [sp, #24]	@ movhi
	movw	r3, #19776
	strh	r3, [sp, #28]	@ movhi
.L203:
	mov	r0, #1024
	movs	r6, #1
	bl	nand_get_temp_buf
	mov	r5, r0
	mov	r0, r4
	bl	nand_enable_chip
	ldr	r0, [r4, #268]
	bl	ndfc_disable_randomize
	movs	r2, #1
	movs	r1, #255
	mov	r0, r4
	bl	set_one_cmd
	movs	r3, #54
	movs	r2, #0
	strb	r3, [sp, #20]
	add	r3, sp, #28
	str	r3, [sp]
	add	r1, sp, #20
	add	r3, sp, #24
	strd	r6, r6, [sp, #4]
	mov	r0, r4
	bl	set_cmd_with_nand_bus
	movs	r2, #0
	add	r3, sp, #29
	mov	r1, r2
	str	r3, [sp]
	strd	r6, r6, [sp, #4]
	add	r3, sp, #25
	mov	r0, r4
	bl	set_cmd_with_nand_bus
	movs	r2, #0
	movs	r1, #22
	mov	r0, r4
	bl	set_one_cmd
	movs	r2, #0
	movs	r1, #23
	mov	r0, r4
	bl	set_one_cmd
	movs	r2, #0
	movs	r1, #4
	mov	r0, r4
	bl	set_one_cmd
	movs	r2, #0
	movs	r1, #25
	mov	r0, r4
	bl	set_one_cmd
	movs	r2, #0
	mov	r0, r4
	mov	r1, r2
	bl	set_one_cmd
	movs	r1, #0
	mov	r0, r4
	bl	set_one_addr
	movs	r1, #0
	mov	r0, r4
	bl	set_one_addr
	movs	r1, #0
	mov	r0, r4
	bl	set_one_addr
	movs	r1, #2
	mov	r0, r4
	bl	set_one_addr
	movs	r1, #0
	mov	r0, r4
	bl	set_one_addr
	movs	r3, #48
	movs	r2, #0
	strb	r3, [sp, #20]
	movs	r3, #2
	str	r3, [sp]
	add	r1, sp, #20
	mov	r3, r5
	mov	r0, r4
	bl	get_data_with_nand_bus_one_cmd
	ldrb	r1, [r5]	@ zero_extendqisi2
	ldrb	r2, [r5, #1]	@ zero_extendqisi2
	cmp	r1, #8
	bne	.L205
	cmp	r2, #8
	beq	.L214
.L205:
	mvn	r6, #95
	ldr	r0, .L219+4
	bl	NAND_Print
.L206:
	mov	r3, #1024
	movs	r2, #0
	str	r3, [sp]
	mov	r1, r2
	mov	r3, r5
	mov	r0, r4
	bl	get_data_with_nand_bus_one_cmd
	movs	r1, #0
	add	ip, r4, #112
.L207:
	add	r2, r5, r1, lsl #7
	add	r3, r4, #48
.L209:
	ldrb	r7, [r2], #1	@ zero_extendqisi2
	strb	r7, [r3], #1
	ldrb	r0, [r2, #63]	@ zero_extendqisi2
	add	r0, r0, r7
	cmp	r0, #255
	bne	.L208
	cmp	r3, ip
	bne	.L209
	ldr	r0, .L219+8
	bl	NAND_Print_DBG
	b	.L211
.L202:
	cmp	r3, #3
	bne	.L213
	movw	r3, #45230
	strh	r3, [sp, #24]	@ movhi
	movs	r3, #77
	strb	r3, [sp, #29]
	b	.L203
.L214:
	movs	r6, #0
	b	.L206
.L213:
	mvn	r6, #96
	b	.L201
.L208:
	adds	r1, r1, #1
	cmp	r1, #8
	bne	.L207
	mvn	r6, #94
	ldr	r0, .L219+12
	bl	NAND_Print_DBG
.L211:
	movs	r2, #1
	movs	r1, #255
	mov	r0, r4
	bl	set_one_cmd
	movs	r1, #56
	movs	r2, #1
	mov	r0, r4
	bl	set_one_cmd
	mov	r0, r4
	bl	nand_disable_chip
	mov	r1, #1024
	mov	r0, r5
	bl	nand_free_temp_buf
.L201:
	mov	r0, r6
	add	sp, sp, #36
	@ sp needed
	pop	{r4, r5, r6, r7, pc}
.L220:
	.align	2
.L219:
	.word	.LANCHOR15
	.word	.LC22
	.word	.LC24
	.word	.LC23
	.size	hynix20nm_vender_get_param_otp_hynix, .-hynix20nm_vender_get_param_otp_hynix
	.section	.text.hynix20nm_saveotpvalue,"ax",%progbits
	.align	1
	.global	hynix20nm_saveotpvalue
	.syntax unified
	.thumb
	.thumb_func
	.fpu softvfp
	.type	hynix20nm_saveotpvalue, %function
hynix20nm_saveotpvalue:
	@ args = 0, pretend = 0, frame = 0
	@ frame_needed = 0, uses_anonymous_args = 0
	@ link register save eliminated.
	subs	r3, r1, #1
	adds	r0, r0, #48
	adds	r1, r1, #63
.L222:
	ldrb	r2, [r3, #1]!	@ zero_extendqisi2
	cmp	r3, r1
	strb	r2, [r0], #1
	bne	.L222
	bx	lr
	.size	hynix20nm_saveotpvalue, .-hynix20nm_saveotpvalue
	.section	.text.hynix20nm_getotpparam,"ax",%progbits
	.align	1
	.global	hynix20nm_getotpparam
	.syntax unified
	.thumb
	.thumb_func
	.fpu softvfp
	.type	hynix20nm_getotpparam, %function
hynix20nm_getotpparam:
	@ args = 0, pretend = 0, frame = 0
	@ frame_needed = 0, uses_anonymous_args = 0
	push	{r4, r5, r6, r7, r8, lr}
	mov	r4, r0
	ldr	r8, .L234+4
	mov	r5, r1
	movs	r6, #0
.L227:
	mov	r1, r6
	mov	r0, r8
	bl	NAND_Print_DBG
	mov	r0, r4
	bl	hynix20nm_vender_get_param_otp_hynix
	mov	r7, r0
	cbnz	r0, .L225
	mov	r0, r4
	mov	r1, r5
	add	r2, r4, #64
.L226:
	movs	r3, #0
.L229:
	adds	r4, r0, r3
	ldrb	r4, [r4, #48]	@ zero_extendqisi2
	strb	r4, [r1, r3]
	adds	r3, r3, #1
	cmp	r3, #8
	bne	.L229
	adds	r0, r0, #8
	adds	r1, r1, #8
	cmp	r2, r0
	bne	.L226
.L224:
	mov	r0, r7
	pop	{r4, r5, r6, r7, r8, pc}
.L225:
	adds	r6, r6, #1
	cmp	r6, #5
	bne	.L227
	ldr	r0, .L234
	bl	NAND_Print
	b	.L224
.L235:
	.align	2
.L234:
	.word	.LC26
	.word	.LC25
	.size	hynix20nm_getotpparam, .-hynix20nm_getotpparam
	.section	.text.hynix20nm_set_default_param,"ax",%progbits
	.align	1
	.global	hynix20nm_set_default_param
	.syntax unified
	.thumb
	.thumb_func
	.fpu softvfp
	.type	hynix20nm_set_default_param, %function
hynix20nm_set_default_param:
	@ args = 0, pretend = 0, frame = 8
	@ frame_needed = 0, uses_anonymous_args = 0
	push	{r0, r1, r2, r4, r5, r6, r7, lr}
	add	r1, r0, #48
	ldr	r5, .L241
	movs	r2, #0
	ldrb	r3, [r5]	@ zero_extendqisi2
.L237:
	cmp	r3, r2
	bhi	.L238
	ldr	r7, .L241+4
	mov	r1, sp
	ldr	r2, .L241+8
	movs	r4, #0
	bl	hynix20nm_vender_set_param
	mov	r6, r0
	ldr	r0, .L241+12
	bl	NAND_Print_DBG
.L239:
	ldrb	r3, [r5]	@ zero_extendqisi2
	cmp	r3, r4
	bhi	.L240
	ldr	r0, .L241+16
	bl	NAND_Print_DBG
	mov	r0, r6
	add	sp, sp, #12
	@ sp needed
	pop	{r4, r5, r6, r7, pc}
.L238:
	ldrb	r4, [r1], #1	@ zero_extendqisi2
	strb	r4, [sp, r2]
	adds	r2, r2, #1
	b	.L237
.L240:
	ldrb	r1, [sp, r4]	@ zero_extendqisi2
	mov	r0, r7
	bl	NAND_Print_DBG
	adds	r4, r4, #1
	b	.L239
.L242:
	.align	2
.L241:
	.word	.LANCHOR13
	.word	.LC28
	.word	.LANCHOR14
	.word	.LC27
	.word	.LC7
	.size	hynix20nm_set_default_param, .-hynix20nm_set_default_param
	.section	.text.hynix20nm_readretry_exit,"ax",%progbits
	.align	1
	.global	hynix20nm_readretry_exit
	.syntax unified
	.thumb
	.thumb_func
	.fpu softvfp
	.type	hynix20nm_readretry_exit, %function
hynix20nm_readretry_exit:
	@ args = 0, pretend = 0, frame = 0
	@ frame_needed = 0, uses_anonymous_args = 0
	push	{r4, lr}
	mov	r4, r0
	ldr	r0, .L244
	bl	NAND_Print_DBG
	mov	r0, r4
	bl	hynix20nm_set_default_param
	movs	r0, #0
	str	r0, [r4, #176]
	pop	{r4, pc}
.L245:
	.align	2
.L244:
	.word	.LC29
	.size	hynix20nm_readretry_exit, .-hynix20nm_readretry_exit
	.section	.text.hynix20nm_special_exit,"ax",%progbits
	.align	1
	.global	hynix20nm_special_exit
	.syntax unified
	.thumb
	.thumb_func
	.fpu softvfp
	.type	hynix20nm_special_exit, %function
hynix20nm_special_exit:
	@ args = 0, pretend = 0, frame = 0
	@ frame_needed = 0, uses_anonymous_args = 0
	ldr	r3, .L249
	push	{r4, lr}
	ldr	r3, [r3]
	ldr	r4, [r3, #8]
.L247:
	cbnz	r4, .L248
	ldr	r0, .L249+4
	bl	NAND_Print_DBG
	mov	r0, r4
	pop	{r4, pc}
.L248:
	mov	r0, r4
	bl	hynix20nm_readretry_exit
	ldr	r4, [r4]
	b	.L247
.L250:
	.align	2
.L249:
	.word	g_nsi
	.word	.LC30
	.size	hynix20nm_special_exit, .-hynix20nm_special_exit
	.section	.text.hynix26nm_vender_set_param,"ax",%progbits
	.align	1
	.global	hynix26nm_vender_set_param
	.syntax unified
	.thumb
	.thumb_func
	.fpu softvfp
	.type	hynix26nm_vender_set_param, %function
hynix26nm_vender_set_param:
	@ args = 0, pretend = 0, frame = 8
	@ frame_needed = 0, uses_anonymous_args = 0
	push	{r4, r5, r6, r7, r8, r10, fp, lr}
	mov	r5, r1
	sub	sp, sp, #24
	mov	r4, r2
	mov	r7, r3
	mov	r6, r0
	movs	r3, #54
	add	r10, sp, #24
	mov	r8, r5
	add	r7, r7, r4
	mov	fp, #1
	strb	r3, [r10, #-1]!
	bl	nand_enable_chip
	ldr	r0, [r6, #268]
	bl	ndfc_disable_randomize
.L252:
	cmp	r4, r7
	bne	.L253
	mov	r0, r6
	bl	nand_disable_chip
	ldrb	r0, [r5, #3]	@ zero_extendqisi2
	ldrb	r3, [r5, #2]	@ zero_extendqisi2
	ldrb	r2, [r5, #1]	@ zero_extendqisi2
	str	r0, [sp]
	ldrb	r1, [r5]	@ zero_extendqisi2
	ldr	r0, .L254
	bl	NAND_Print_DBG
	movs	r0, #0
	add	sp, sp, #24
	@ sp needed
	pop	{r4, r5, r6, r7, r8, r10, fp, pc}
.L253:
	mov	r3, r4
	str	r8, [sp]
	movs	r2, #0
	mov	r1, r10
	strd	fp, fp, [sp, #4]
	mov	r0, r6
	bl	set_cmd_with_nand_bus
	movs	r2, #0
	movs	r1, #22
	mov	r0, r6
	adds	r4, r4, #1
	bl	set_one_cmd
	add	r8, r8, #1
	b	.L252
.L255:
	.align	2
.L254:
	.word	.LC31
	.size	hynix26nm_vender_set_param, .-hynix26nm_vender_set_param
	.section	.text.hynix26nm_set_readretry,"ax",%progbits
	.align	1
	.global	hynix26nm_set_readretry
	.syntax unified
	.thumb
	.thumb_func
	.fpu softvfp
	.type	hynix26nm_set_readretry, %function
hynix26nm_set_readretry:
	@ args = 0, pretend = 0, frame = 8
	@ frame_needed = 0, uses_anonymous_args = 0
	ldr	r3, .L265
	push	{r0, r1, r4, r5, r6, r7, r8, lr}
	ldr	r1, [r0, #176]
	ldrb	r3, [r3]	@ zero_extendqisi2
	cmp	r1, r3
	bhi	.L264
	ldr	r4, .L265+4
	movs	r6, #0
	ldr	r7, .L265+8
	add	r5, sp, #4
	ldrb	r3, [r4]	@ zero_extendqisi2
	add	r7, r7, r1, lsl #3
.L258:
	cmp	r3, r6
	bhi	.L259
	subs	r2, r1, #2
	subs	r1, r1, #5
	cmp	r2, #4
	ldr	r8, .L265+24
	it	ls
	movls	r2, #0
	mov	r6, #0
	it	ls
	strbls	r2, [sp, #4]
	cmp	r1, #1
	it	ls
	movls	r2, #0
	mov	r1, r5
	it	ls
	strbls	r2, [sp, #5]
	ldr	r2, .L265+12
	bl	hynix26nm_vender_set_param
	mov	r7, r0
	ldr	r0, .L265+16
	bl	NAND_Print_DBG
.L262:
	ldrb	r3, [r4]	@ zero_extendqisi2
	cmp	r3, r6
	bhi	.L263
	ldr	r0, .L265+20
	bl	NAND_Print_DBG
.L256:
	mov	r0, r7
	add	sp, sp, #8
	@ sp needed
	pop	{r4, r5, r6, r7, r8, pc}
.L259:
	adds	r2, r0, r6
	ldrh	ip, [r7, r6, lsl #1]
	ldrb	r2, [r2, #48]	@ zero_extendqisi2
	add	r2, r2, ip
	sxth	r2, r2
	usat	r2, #8, r2
	strb	r2, [r5, r6]
	adds	r6, r6, #1
	b	.L258
.L263:
	ldrb	r1, [r5, r6]	@ zero_extendqisi2
	mov	r0, r8
	bl	NAND_Print_DBG
	adds	r6, r6, #1
	b	.L262
.L264:
	mvn	r7, #52
	b	.L256
.L266:
	.align	2
.L265:
	.word	.LANCHOR20
	.word	.LANCHOR21
	.word	.LANCHOR22
	.word	.LANCHOR23
	.word	.LC32
	.word	.LC7
	.word	.LC20
	.size	hynix26nm_set_readretry, .-hynix26nm_set_readretry
	.section	.text.hynix26nm_read_page_end,"ax",%progbits
	.align	1
	.global	hynix26nm_read_page_end
	.syntax unified
	.thumb
	.thumb_func
	.fpu softvfp
	.type	hynix26nm_read_page_end, %function
hynix26nm_read_page_end:
	@ args = 0, pretend = 0, frame = 0
	@ frame_needed = 0, uses_anonymous_args = 0
	ldr	r3, .L280
	push	{r0, r1, r2, r4, r5, r6, r7, r8, r10, lr}
	mov	r6, r0
	ldr	r1, [r0]
	ldr	r0, [r3]
	bl	nci_get_from_nsi
	mov	r5, r0
	mov	r0, r6
	bl	generic_read_page_end_not_retry
	adds	r3, r0, #2
	mov	r4, r0
	bne	.L267
	ldr	r7, .L280+4
	mov	r10, #0
	mov	r8, r10
	ldr	r0, .L280+8
	bl	NAND_Print_DBG
.L269:
	ldrb	r2, [r7]	@ zero_extendqisi2
	cmp	r2, r10
	ble	.L273
	ldr	r3, [r5, #176]
	mov	r0, r5
	adds	r3, r3, #1
	cmp	r3, r2
	it	hi
	movhi	r3, r8
	str	r3, [r5, #176]
	bl	hynix26nm_set_readretry
	mov	r4, r0
	cbz	r0, .L272
	movs	r3, #0
	mov	r0, r5
	str	r3, [r5, #176]
	bl	hynix26nm_set_readretry
.L273:
	movs	r3, #0
	mov	r0, r5
	str	r3, [r5, #176]
	bl	hynix26nm_set_readretry
.L267:
	mov	r0, r4
	add	sp, sp, #12
	@ sp needed
	pop	{r4, r5, r6, r7, r8, r10, pc}
.L272:
	mov	r0, r6
	bl	generic_read_page_start
	mov	r4, r0
	mov	r0, r6
	bl	generic_read_page_end_not_retry
	orrs	r4, r4, r0
	cmp	r4, #10
	beq	.L274
	cbnz	r4, .L275
.L274:
	ldr	r3, [r5, #176]
	movs	r4, #10
	ldr	r1, [r5, #268]
	ldr	r0, .L280+12
	str	r3, [sp, #4]
	ldr	r3, [r6, #8]
	str	r3, [sp]
	ldr	r3, [r6, #4]
	ldr	r2, [r5, #20]
	ldr	r1, [r1, #8]
	bl	NAND_Print_DBG
	b	.L273
.L275:
	add	r10, r10, #1
	b	.L269
.L281:
	.align	2
.L280:
	.word	g_nsi
	.word	.LANCHOR20
	.word	.LC33
	.word	.LC34
	.size	hynix26nm_read_page_end, .-hynix26nm_read_page_end
	.section	.text.hynix26nm_vender_get_param,"ax",%progbits
	.align	1
	.global	hynix26nm_vender_get_param
	.syntax unified
	.thumb
	.thumb_func
	.fpu softvfp
	.type	hynix26nm_vender_get_param, %function
hynix26nm_vender_get_param:
	@ args = 0, pretend = 0, frame = 8
	@ frame_needed = 0, uses_anonymous_args = 0
	push	{r4, r5, r6, r7, r8, r10, lr}
	mov	r4, r2
	sub	sp, sp, #20
	mov	r7, r3
	mov	r6, r0
	movs	r3, #55
	add	r8, sp, #16
	add	r7, r7, r4
	mov	r10, #1
	mov	r5, r1
	strb	r3, [r8, #-1]!
	bl	nand_enable_chip
	ldr	r0, [r6, #268]
	bl	ndfc_disable_randomize
.L283:
	cmp	r4, r7
	bne	.L284
	mov	r0, r6
	bl	nand_disable_chip
	movs	r0, #0
	add	sp, sp, #20
	@ sp needed
	pop	{r4, r5, r6, r7, r8, r10, pc}
.L284:
	mov	r3, r5
	mov	r2, r4
	str	r10, [sp]
	mov	r1, r8
	mov	r0, r6
	adds	r4, r4, #1
	bl	get_data_with_nand_bus_one_cmd
	adds	r5, r5, #1
	b	.L283
	.size	hynix26nm_vender_get_param, .-hynix26nm_vender_get_param
	.section	.text.hynix26nm_lsb_init,"ax",%progbits
	.align	1
	.global	hynix26nm_lsb_init
	.syntax unified
	.thumb
	.thumb_func
	.fpu softvfp
	.type	hynix26nm_lsb_init, %function
hynix26nm_lsb_init:
	@ args = 0, pretend = 0, frame = 0
	@ frame_needed = 0, uses_anonymous_args = 0
	@ link register save eliminated.
	ldr	r3, [r0, #272]
	movs	r0, #0
	ldr	r2, .L286
	ldr	r3, [r3, #52]
	lsrs	r1, r3, #16
	strb	r1, [r2]
	lsrs	r1, r3, #8
	ldr	r2, .L286+4
	strb	r1, [r2]
	ldr	r2, .L286+8
	strb	r3, [r2]
	movs	r2, #5
	ldr	r3, .L286+12
	strb	r2, [r3]
	movs	r2, #164
	ldr	r3, .L286+16
	strb	r2, [r3]
	movs	r2, #165
	strb	r2, [r3, #1]
	movs	r2, #176
	strb	r2, [r3, #2]
	movs	r2, #177
	strb	r2, [r3, #3]
	movs	r2, #201
	strb	r2, [r3, #4]
	movs	r2, #37
	ldr	r3, .L286+20
	strb	r2, [r3]
	strb	r2, [r3, #1]
	strb	r2, [r3, #2]
	strb	r2, [r3, #3]
	movs	r2, #1
	strb	r2, [r3, #4]
	bx	lr
.L287:
	.align	2
.L286:
	.word	.LANCHOR24
	.word	.LANCHOR20
	.word	.LANCHOR21
	.word	.LANCHOR25
	.word	.LANCHOR26
	.word	.LANCHOR27
	.size	hynix26nm_lsb_init, .-hynix26nm_lsb_init
	.section	.text.hynix26nm_lsb_enable,"ax",%progbits
	.align	1
	.global	hynix26nm_lsb_enable
	.syntax unified
	.thumb
	.thumb_func
	.fpu softvfp
	.type	hynix26nm_lsb_enable, %function
hynix26nm_lsb_enable:
	@ args = 0, pretend = 0, frame = 8
	@ frame_needed = 0, uses_anonymous_args = 0
	push	{r0, r1, r4, r5, r6, lr}
	mov	r5, r0
	ldr	r4, .L291
	ldr	r2, .L291+4
	ldrb	r3, [r4]	@ zero_extendqisi2
	ldr	r1, .L291+8
	bl	hynix26nm_vender_get_param
	ldrb	r3, [r4]	@ zero_extendqisi2
	movs	r2, #0
	ldr	r0, .L291+8
	ldr	r4, .L291+12
.L289:
	cmp	r3, r2
	bhi	.L290
	ldr	r2, .L291+4
	mov	r1, sp
	mov	r0, r5
	bl	hynix26nm_vender_set_param
	movs	r0, #0
	add	sp, sp, #8
	@ sp needed
	pop	{r4, r5, r6, pc}
.L290:
	ldrb	r1, [r2, r0]	@ zero_extendqisi2
	ldrb	r6, [r2, r4]	@ zero_extendqisi2
	add	r1, r1, r6
	strb	r1, [sp, r2]
	adds	r2, r2, #1
	b	.L289
.L292:
	.align	2
.L291:
	.word	.LANCHOR25
	.word	.LANCHOR26
	.word	.LANCHOR28
	.word	.LANCHOR27
	.size	hynix26nm_lsb_enable, .-hynix26nm_lsb_enable
	.section	.text.hynix26nm_lsb_disable,"ax",%progbits
	.align	1
	.global	hynix26nm_lsb_disable
	.syntax unified
	.thumb
	.thumb_func
	.fpu softvfp
	.type	hynix26nm_lsb_disable, %function
hynix26nm_lsb_disable:
	@ args = 0, pretend = 0, frame = 0
	@ frame_needed = 0, uses_anonymous_args = 0
	push	{r3, lr}
	ldr	r3, .L294
	ldr	r2, .L294+4
	ldrb	r3, [r3]	@ zero_extendqisi2
	ldr	r1, .L294+8
	bl	hynix26nm_vender_set_param
	movs	r0, #0
	pop	{r3, pc}
.L295:
	.align	2
.L294:
	.word	.LANCHOR25
	.word	.LANCHOR26
	.word	.LANCHOR28
	.size	hynix26nm_lsb_disable, .-hynix26nm_lsb_disable
	.section	.text.hynix26nm_lsb_exit,"ax",%progbits
	.align	1
	.global	hynix26nm_lsb_exit
	.syntax unified
	.thumb
	.thumb_func
	.fpu softvfp
	.type	hynix26nm_lsb_exit, %function
hynix26nm_lsb_exit:
	@ args = 0, pretend = 0, frame = 0
	@ frame_needed = 0, uses_anonymous_args = 0
	push	{r4, lr}
	mov	r4, r0
	bl	nand_enable_chip
	ldr	r0, [r4, #268]
	bl	ndfc_disable_randomize
	movs	r2, #0
	mov	r0, r4
	mov	r1, r2
	bl	set_one_cmd
	movs	r1, #0
	mov	r0, r4
	bl	set_one_addr
	movs	r1, #0
	mov	r0, r4
	bl	set_one_addr
	movs	r1, #0
	mov	r0, r4
	bl	set_one_addr
	movs	r1, #0
	mov	r0, r4
	bl	set_one_addr
	movs	r1, #0
	mov	r0, r4
	bl	set_one_addr
	movs	r2, #1
	movs	r1, #48
	mov	r0, r4
	bl	set_one_cmd
	ldr	r0, .L297
	bl	NAND_Print_DBG
	mov	r0, r4
	bl	nand_disable_chip
	movs	r0, #0
	pop	{r4, pc}
.L298:
	.align	2
.L297:
	.word	.LC35
	.size	hynix26nm_lsb_exit, .-hynix26nm_lsb_exit
	.section	.text.hynix26nm_getdefaultparam,"ax",%progbits
	.align	1
	.global	hynix26nm_getdefaultparam
	.syntax unified
	.thumb
	.thumb_func
	.fpu softvfp
	.type	hynix26nm_getdefaultparam, %function
hynix26nm_getdefaultparam:
	@ args = 0, pretend = 0, frame = 0
	@ frame_needed = 0, uses_anonymous_args = 0
	push	{r4, r5, r6, lr}
	add	r4, r0, #48
	ldr	r5, .L302
	mov	r6, r1
	mov	r1, r4
	ldr	r2, .L302+4
	ldrb	r3, [r5]	@ zero_extendqisi2
	bl	hynix26nm_vender_get_param
	mov	r3, r6
.L300:
	ldrb	r1, [r5]	@ zero_extendqisi2
	subs	r2, r3, r6
	cmp	r1, r2
	bgt	.L301
	pop	{r4, r5, r6, pc}
.L301:
	ldrb	r2, [r4], #1	@ zero_extendqisi2
	strb	r2, [r3], #1
	b	.L300
.L303:
	.align	2
.L302:
	.word	.LANCHOR21
	.word	.LANCHOR23
	.size	hynix26nm_getdefaultparam, .-hynix26nm_getdefaultparam
	.section	.text.hynix26nm_setdefaultparam,"ax",%progbits
	.align	1
	.global	hynix26nm_setdefaultparam
	.syntax unified
	.thumb
	.thumb_func
	.fpu softvfp
	.type	hynix26nm_setdefaultparam, %function
hynix26nm_setdefaultparam:
	@ args = 0, pretend = 0, frame = 8
	@ frame_needed = 0, uses_anonymous_args = 0
	push	{r0, r1, r2, r4, r5, r6, r7, lr}
	add	r1, r0, #48
	ldr	r5, .L309
	movs	r2, #0
	ldrb	r3, [r5]	@ zero_extendqisi2
.L305:
	cmp	r3, r2
	bgt	.L306
	ldr	r7, .L309+4
	mov	r1, sp
	ldr	r2, .L309+8
	movs	r4, #0
	bl	hynix26nm_vender_set_param
	mov	r6, r0
	ldr	r0, .L309+12
	bl	NAND_Print_DBG
.L307:
	ldrb	r3, [r5]	@ zero_extendqisi2
	cmp	r3, r4
	bgt	.L308
	ldr	r0, .L309+16
	bl	NAND_Print_DBG
	mov	r0, r6
	add	sp, sp, #12
	@ sp needed
	pop	{r4, r5, r6, r7, pc}
.L306:
	ldrb	r4, [r1], #1	@ zero_extendqisi2
	strb	r4, [sp, r2]
	adds	r2, r2, #1
	b	.L305
.L308:
	ldrb	r1, [sp, r4]	@ zero_extendqisi2
	mov	r0, r7
	bl	NAND_Print_DBG
	adds	r4, r4, #1
	b	.L307
.L310:
	.align	2
.L309:
	.word	.LANCHOR21
	.word	.LC28
	.word	.LANCHOR23
	.word	.LC27
	.word	.LC7
	.size	hynix26nm_setdefaultparam, .-hynix26nm_setdefaultparam
	.section	.text.hynix26nm_get_default_param,"ax",%progbits
	.align	1
	.global	hynix26nm_get_default_param
	.syntax unified
	.thumb
	.thumb_func
	.fpu softvfp
	.type	hynix26nm_get_default_param, %function
hynix26nm_get_default_param:
	@ args = 0, pretend = 0, frame = 8
	@ frame_needed = 0, uses_anonymous_args = 0
	push	{r4, lr}
	sub	sp, sp, #24
	add	r1, sp, #20
	mov	r4, r0
	bl	hynix26nm_getdefaultparam
	ldrb	r2, [sp, #23]	@ zero_extendqisi2
	ldr	r1, [r4, #268]
	ldrb	r3, [sp, #20]	@ zero_extendqisi2
	str	r2, [sp, #8]
	ldrb	r2, [sp, #22]	@ zero_extendqisi2
	ldr	r0, .L312
	str	r2, [sp, #4]
	ldrb	r2, [sp, #21]	@ zero_extendqisi2
	str	r2, [sp]
	ldr	r2, [r4, #20]
	ldr	r1, [r1, #8]
	bl	NAND_Print_DBG
	mov	r0, r4
	bl	hynix26nm_setdefaultparam
	movs	r0, #0
	add	sp, sp, #24
	@ sp needed
	pop	{r4, pc}
.L313:
	.align	2
.L312:
	.word	.LC36
	.size	hynix26nm_get_default_param, .-hynix26nm_get_default_param
	.section	.text.hynix26nm_readretry_init,"ax",%progbits
	.align	1
	.global	hynix26nm_readretry_init
	.syntax unified
	.thumb
	.thumb_func
	.fpu softvfp
	.type	hynix26nm_readretry_init, %function
hynix26nm_readretry_init:
	@ args = 0, pretend = 0, frame = 0
	@ frame_needed = 0, uses_anonymous_args = 0
	push	{r3, r4, r5, r6, r7, lr}
	ldr	r3, [r0, #272]
	ldr	r4, .L329
	ldr	r2, [r3, #52]
	ldr	r3, .L329+4
	ubfx	r1, r2, #16, #8
	strb	r1, [r3]
	lsrs	r3, r2, #8
	strb	r3, [r4]
	ldr	r4, .L329+8
	strb	r2, [r4]
	cbnz	r1, .L315
	ldr	r4, .L329+12
	movs	r5, #172
	uxtb	r3, r3
	ldr	r6, .L329+16
	uxtb	r2, r2
	strb	r5, [r4]
	movs	r5, #173
	strb	r5, [r4, #1]
	movs	r5, #174
	strb	r5, [r4, #2]
	movs	r5, #175
	strb	r5, [r4, #3]
	adds	r3, r3, #1
	ldr	r5, .L329+20
.L316:
	cmp	r3, r1
	bhi	.L326
.L319:
	add	r2, r0, #48
	add	r1, r0, #176
	movs	r3, #0
	str	r3, [r0, #176]
.L325:
	strb	r3, [r2], #1
	cmp	r1, r2
	bne	.L325
	bl	hynix26nm_get_default_param
	movs	r0, #0
	b	.L314
.L317:
	ldrh	r7, [r5, r4, lsl #1]
	strh	r7, [r6, r4, lsl #1]	@ movhi
	adds	r4, r4, #1
.L318:
	cmp	r4, r2
	bcc	.L317
	adds	r1, r1, #1
	adds	r5, r5, #8
	adds	r6, r6, #8
	b	.L316
.L326:
	movs	r4, #0
	b	.L318
.L315:
	cmp	r1, #1
	bne	.L320
	ldr	r1, .L329+12
	movs	r4, #167
	uxtb	r3, r3
	ldr	r5, .L329+24
	ldr	r6, .L329+16
	uxtb	r2, r2
	strb	r4, [r1]
	movs	r4, #173
	strb	r4, [r1, #1]
	movs	r4, #174
	strb	r4, [r1, #2]
	movs	r4, #175
	strb	r4, [r1, #3]
	adds	r3, r3, #1
	movs	r4, #0
.L321:
	cmp	r3, r4
	bls	.L319
	movs	r1, #0
	b	.L323
.L322:
	ldrh	r7, [r5, r1, lsl #1]
	strh	r7, [r6, r1, lsl #1]	@ movhi
	adds	r1, r1, #1
.L323:
	cmp	r1, r2
	bcc	.L322
	adds	r4, r4, #1
	adds	r5, r5, #8
	adds	r6, r6, #8
	b	.L321
.L320:
	ldr	r0, .L329+28
	bl	NAND_Print
	mvn	r0, #53
.L314:
	pop	{r3, r4, r5, r6, r7, pc}
.L330:
	.align	2
.L329:
	.word	.LANCHOR20
	.word	.LANCHOR24
	.word	.LANCHOR21
	.word	.LANCHOR23
	.word	.LANCHOR22
	.word	.LANCHOR29
	.word	.LANCHOR30
	.word	.LC37
	.size	hynix26nm_readretry_init, .-hynix26nm_readretry_init
	.section	.text.hynix26nm_readretry_exit,"ax",%progbits
	.align	1
	.global	hynix26nm_readretry_exit
	.syntax unified
	.thumb
	.thumb_func
	.fpu softvfp
	.type	hynix26nm_readretry_exit, %function
hynix26nm_readretry_exit:
	@ args = 0, pretend = 0, frame = 0
	@ frame_needed = 0, uses_anonymous_args = 0
	push	{r4, lr}
	mov	r4, r0
	ldr	r0, .L332
	bl	NAND_Print_DBG
	mov	r0, r4
	bl	hynix26nm_setdefaultparam
	movs	r0, #0
	str	r0, [r4, #176]
	pop	{r4, pc}
.L333:
	.align	2
.L332:
	.word	.LC38
	.size	hynix26nm_readretry_exit, .-hynix26nm_readretry_exit
	.section	.text.hynix26nm_special_init,"ax",%progbits
	.align	1
	.global	hynix26nm_special_init
	.syntax unified
	.thumb
	.thumb_func
	.fpu softvfp
	.type	hynix26nm_special_init, %function
hynix26nm_special_init:
	@ args = 0, pretend = 0, frame = 0
	@ frame_needed = 0, uses_anonymous_args = 0
	push	{r3, r4, r5, lr}
	movs	r4, #0
	ldr	r3, .L339
	ldr	r3, [r3]
	ldr	r5, [r3, #8]
.L335:
	cbnz	r5, .L336
	ldr	r3, .L339+4
	ldrb	r1, [r3]	@ zero_extendqisi2
	ldr	r3, .L339+8
	ldrb	r2, [r3]	@ zero_extendqisi2
	ldr	r3, .L339+12
	ldrb	r3, [r3]	@ zero_extendqisi2
	cbnz	r4, .L337
	ldr	r0, .L339+16
	ldr	r5, .L339+20
	str	r5, [r0]
	ldr	r0, .L339+24
	bl	NAND_Print_DBG
.L334:
	mov	r0, r4
	pop	{r3, r4, r5, pc}
.L336:
	mov	r0, r5
	bl	hynix26nm_readretry_init
	ldr	r5, [r5]
	orrs	r4, r4, r0
	b	.L335
.L337:
	ldr	r0, .L339+28
	bl	NAND_Print
	b	.L334
.L340:
	.align	2
.L339:
	.word	g_nsi
	.word	.LANCHOR24
	.word	.LANCHOR20
	.word	.LANCHOR21
	.word	df_read_page_end
	.word	hynix26nm_read_page_end
	.word	.LC39
	.word	.LC40
	.size	hynix26nm_special_init, .-hynix26nm_special_init
	.section	.text.hynix26nm_special_exit,"ax",%progbits
	.align	1
	.global	hynix26nm_special_exit
	.syntax unified
	.thumb
	.thumb_func
	.fpu softvfp
	.type	hynix26nm_special_exit, %function
hynix26nm_special_exit:
	@ args = 0, pretend = 0, frame = 0
	@ frame_needed = 0, uses_anonymous_args = 0
	ldr	r3, .L344
	push	{r4, lr}
	ldr	r3, [r3]
	ldr	r4, [r3, #8]
.L342:
	cbnz	r4, .L343
	ldr	r0, .L344+4
	bl	NAND_Print_DBG
	mov	r0, r4
	pop	{r4, pc}
.L343:
	mov	r0, r4
	bl	hynix26nm_readretry_exit
	ldr	r4, [r4]
	b	.L342
.L345:
	.align	2
.L344:
	.word	g_nsi
	.word	.LC41
	.size	hynix26nm_special_exit, .-hynix26nm_special_exit
	.section	.text.toshiba_read_retry_clock_save,"ax",%progbits
	.align	1
	.global	toshiba_read_retry_clock_save
	.syntax unified
	.thumb
	.thumb_func
	.fpu softvfp
	.type	toshiba_read_retry_clock_save, %function
toshiba_read_retry_clock_save:
	@ args = 0, pretend = 0, frame = 0
	@ frame_needed = 0, uses_anonymous_args = 0
	push	{r4, lr}
	mov	r4, r0
	ldr	r3, .L347
	ldr	r0, [r0, #268]
	ldr	r3, [r3]
	ldr	r2, .L347+4
	ldr	r1, .L347+8
	ldr	r0, [r0, #8]
	blx	r3
	ldr	r0, [r4, #268]
	movs	r2, #20
	ldr	r3, .L347+12
	movs	r1, #10
	ldr	r0, [r0, #8]
	ldr	r3, [r3]
	blx	r3
	movs	r0, #0
	pop	{r4, pc}
.L348:
	.align	2
.L347:
	.word	NAND_GetClk
	.word	.LANCHOR31
	.word	.LANCHOR32
	.word	NAND_SetClk
	.size	toshiba_read_retry_clock_save, .-toshiba_read_retry_clock_save
	.section	.text.toshiba_read_retry_clock_recover,"ax",%progbits
	.align	1
	.global	toshiba_read_retry_clock_recover
	.syntax unified
	.thumb
	.thumb_func
	.fpu softvfp
	.type	toshiba_read_retry_clock_recover, %function
toshiba_read_retry_clock_recover:
	@ args = 0, pretend = 0, frame = 0
	@ frame_needed = 0, uses_anonymous_args = 0
	push	{r3, lr}
	ldr	r0, [r0, #268]
	ldr	r3, .L350
	ldr	r2, .L350+4
	ldr	r1, .L350+8
	ldr	r3, [r3]
	ldr	r2, [r2]
	ldr	r1, [r1]
	ldr	r0, [r0, #8]
	blx	r3
	movs	r0, #0
	pop	{r3, pc}
.L351:
	.align	2
.L350:
	.word	NAND_SetClk
	.word	.LANCHOR31
	.word	.LANCHOR32
	.size	toshiba_read_retry_clock_recover, .-toshiba_read_retry_clock_recover
	.section	.text.toshiba_vender_set_param,"ax",%progbits
	.align	1
	.global	toshiba_vender_set_param
	.syntax unified
	.thumb
	.thumb_func
	.fpu softvfp
	.type	toshiba_vender_set_param, %function
toshiba_vender_set_param:
	@ args = 0, pretend = 0, frame = 0
	@ frame_needed = 0, uses_anonymous_args = 0
	push	{r0, r1, r2, r3, r4, r5, r6, r7, r8, r10, fp, lr}
	mov	r10, r3
	ldr	r7, .L361
	mov	r6, r0
	mov	r4, r1
	mov	r8, r2
	ldrb	r3, [r7]	@ zero_extendqisi2
	cmp	r3, #18
	bne	.L359
	mov	fp, #1
	mov	r3, r2
	strd	r1, fp, [sp]
	movs	r2, #0
	str	r10, [sp, #8]
	ldr	r1, .L361+4
	bl	set_cmd_with_nand_bus
	ldrb	r3, [r4]	@ zero_extendqisi2
	mov	r5, r0
	cbnz	r3, .L353
	ldrb	r3, [r4, #1]	@ zero_extendqisi2
	cbnz	r3, .L353
	ldrb	r3, [r4, #2]	@ zero_extendqisi2
	cbnz	r3, .L353
	ldrb	r3, [r4, #3]	@ zero_extendqisi2
	cbnz	r3, .L353
	ldr	r3, .L361+8
	ldr	r3, [r3]
	cbnz	r3, .L353
.L360:
	ldr	r3, .L361+12
	movs	r2, #1
	mov	r0, r6
	ldrb	r1, [r3]	@ zero_extendqisi2
	bl	set_one_cmd
	orrs	r5, r5, r0
.L352:
	mov	r0, r5
	add	sp, sp, #16
	@ sp needed
	pop	{r4, r5, r6, r7, r8, r10, fp, pc}
.L359:
	movs	r5, #0
.L353:
	ldrb	r3, [r7]	@ zero_extendqisi2
	cmp	r3, #17
	bne	.L355
	mov	fp, #1
	mov	r3, r8
	str	r10, [sp, #8]
	movs	r2, #0
	strd	r4, fp, [sp]
	mov	r0, r6
	ldr	r1, .L361+4
	bl	set_cmd_with_nand_bus
	ldrb	r3, [r4]	@ zero_extendqisi2
	orrs	r5, r5, r0
	cmp	r3, #0
	bne	.L356
	ldrb	r3, [r4, #1]	@ zero_extendqisi2
	cbnz	r3, .L355
	ldrb	r3, [r4, #2]	@ zero_extendqisi2
	cbnz	r3, .L355
	ldrb	r3, [r4, #3]	@ zero_extendqisi2
	cmp	r3, #0
	beq	.L360
.L355:
	ldrb	r3, [r7]	@ zero_extendqisi2
	cmp	r3, #16
	bne	.L357
	ldrb	r3, [r4]	@ zero_extendqisi2
	cmp	r3, #255
	bne	.L358
	ldrb	r3, [r4, #1]	@ zero_extendqisi2
	cmp	r3, #255
	bne	.L358
	ldrb	r3, [r4, #2]	@ zero_extendqisi2
	cmp	r3, #255
	bne	.L358
	ldrb	r3, [r4, #3]	@ zero_extendqisi2
	cmp	r3, #255
	beq	.L360
.L358:
	movs	r3, #1
	str	r10, [sp, #8]
	strd	r4, r3, [sp]
	movs	r2, #0
	mov	r3, r8
	ldr	r1, .L361+16
	mov	r0, r6
	bl	set_cmd_with_nand_bus
	orrs	r5, r5, r0
.L357:
	ldr	r7, .L361+20
	movs	r2, #0
	mov	r0, r6
	ldrb	r1, [r7]	@ zero_extendqisi2
	bl	set_one_cmd
	ldrb	r1, [r7, #1]	@ zero_extendqisi2
	orrs	r5, r5, r0
	movs	r2, #0
	mov	r0, r6
	bl	set_one_cmd
	orrs	r5, r5, r0
	ldrb	r0, [r4, #3]	@ zero_extendqisi2
	ldrb	r3, [r4, #2]	@ zero_extendqisi2
	ldrb	r2, [r4, #1]	@ zero_extendqisi2
	str	r0, [sp]
	ldrb	r1, [r4]	@ zero_extendqisi2
	ldr	r0, .L361+24
	bl	NAND_Print_DBG
	b	.L352
.L356:
	cmp	r3, #2
	bne	.L355
	ldrb	r2, [r4, #1]	@ zero_extendqisi2
	cmp	r2, #0
	bne	.L355
	ldrb	r3, [r4, #2]	@ zero_extendqisi2
	cmp	r3, #126
	bne	.L355
	ldrb	r3, [r4, #3]	@ zero_extendqisi2
	cmp	r3, #124
	bne	.L355
	ldr	r3, .L361+28
	mov	r0, r6
	ldrb	r1, [r3]	@ zero_extendqisi2
	bl	set_one_cmd
	orrs	r5, r5, r0
	b	.L355
.L362:
	.align	2
.L361:
	.word	.LANCHOR33
	.word	.LANCHOR34
	.word	.LANCHOR35
	.word	.LANCHOR36
	.word	.LANCHOR38
	.word	.LANCHOR39
	.word	.LC42
	.word	.LANCHOR37
	.size	toshiba_vender_set_param, .-toshiba_vender_set_param
	.section	.text.toshiba_vender_pre_condition,"ax",%progbits
	.align	1
	.global	toshiba_vender_pre_condition
	.syntax unified
	.thumb
	.thumb_func
	.fpu softvfp
	.type	toshiba_vender_pre_condition, %function
toshiba_vender_pre_condition:
	@ args = 0, pretend = 0, frame = 0
	@ frame_needed = 0, uses_anonymous_args = 0
	push	{r0, r1, r2, r3, r4, lr}
	movs	r3, #0
	movs	r2, #2
	str	r3, [sp]
	strd	r3, r2, [sp, #4]
	mov	r2, r3
	ldr	r1, .L368
	bl	set_cmd_with_nand_bus
	mov	r4, r0
	cbz	r0, .L363
	ldr	r0, .L368+4
	bl	NAND_Print
.L363:
	mov	r0, r4
	add	sp, sp, #16
	@ sp needed
	pop	{r4, pc}
.L369:
	.align	2
.L368:
	.word	.LANCHOR40
	.word	.LC43
	.size	toshiba_vender_pre_condition, .-toshiba_vender_pre_condition
	.section	.text.toshiba_set_readretry,"ax",%progbits
	.align	1
	.global	toshiba_set_readretry
	.syntax unified
	.thumb
	.thumb_func
	.fpu softvfp
	.type	toshiba_set_readretry, %function
toshiba_set_readretry:
	@ args = 0, pretend = 0, frame = 0
	@ frame_needed = 0, uses_anonymous_args = 0
	push	{r4, r5, r6, lr}
	mov	r4, r0
	ldr	r6, .L383
	ldrb	r2, [r6]	@ zero_extendqisi2
	subs	r2, r2, #16
	cmp	r2, #2
	bhi	.L378
	bl	toshiba_read_retry_clock_save
	mov	r0, r4
	bl	nand_enable_chip
	ldr	r0, [r4, #268]
	bl	ndfc_disable_randomize
	ldr	r3, [r4, #176]
	cbnz	r3, .L372
	mov	r0, r4
	bl	toshiba_vender_pre_condition
.L372:
	ldr	r0, [r4, #268]
	bl	ndfc_is_toggle_interface
	ldr	r5, .L383+4
	cbz	r0, .L373
	ldr	r0, [r4, #268]
	bl	ndfc_set_legacy_interface
	movs	r3, #1
	str	r3, [r5]
.L373:
	ldrb	r2, [r6]	@ zero_extendqisi2
	ldr	r1, [r4, #176]
	cmp	r2, #17
	lsl	r3, r1, #2
	bne	.L374
	add	r3, r3, r1
	ldr	r1, .L383+8
.L382:
	ldr	r2, .L383+12
	add	r1, r1, r3
	movs	r3, #5
.L375:
	mov	r0, r4
	bl	toshiba_vender_set_param
	ldr	r3, [r5]
	mov	r6, r0
	cmp	r3, #1
	bne	.L377
	ldr	r0, [r4, #268]
	bl	ndfc_set_toggle_interface
.L377:
	mov	r0, r4
	bl	nand_disable_chip
	mov	r0, r4
	bl	toshiba_read_retry_clock_recover
.L370:
	mov	r0, r6
	pop	{r4, r5, r6, pc}
.L374:
	cmp	r2, #18
	bne	.L376
	add	r3, r3, r1
	ldr	r1, .L383+16
	b	.L382
.L376:
	ldr	r1, .L383+20
	ldr	r2, .L383+24
	add	r1, r1, r3
	movs	r3, #4
	b	.L375
.L378:
	mvn	r6, #88
	b	.L370
.L384:
	.align	2
.L383:
	.word	.LANCHOR33
	.word	.LANCHOR43
	.word	.LANCHOR44
	.word	.LANCHOR41
	.word	.LANCHOR45
	.word	.LANCHOR46
	.word	.LANCHOR42
	.size	toshiba_set_readretry, .-toshiba_set_readretry
	.section	.text.toshiba_readretry_init,"ax",%progbits
	.align	1
	.global	toshiba_readretry_init
	.syntax unified
	.thumb
	.thumb_func
	.fpu softvfp
	.type	toshiba_readretry_init, %function
toshiba_readretry_init:
	@ args = 0, pretend = 0, frame = 0
	@ frame_needed = 0, uses_anonymous_args = 0
	ldr	r3, [r0, #272]
	ldr	r2, .L386
	push	{r4, lr}
	movs	r4, #0
	ldr	r3, [r3, #52]
	str	r4, [r0, #176]
	ldr	r0, .L386+4
	lsrs	r1, r3, #16
	strb	r1, [r2]
	lsrs	r1, r3, #8
	ldr	r2, .L386+8
	strb	r1, [r2]
	uxtb	r1, r1
	ldr	r2, .L386+12
	strb	r3, [r2]
	bl	NAND_Print_DBG
	mov	r0, r4
	pop	{r4, pc}
.L387:
	.align	2
.L386:
	.word	.LANCHOR33
	.word	.LC44
	.word	.LANCHOR47
	.word	.LANCHOR48
	.size	toshiba_readretry_init, .-toshiba_readretry_init
	.section	.text.toshiba_readretry_exit,"ax",%progbits
	.align	1
	.global	toshiba_readretry_exit
	.syntax unified
	.thumb
	.thumb_func
	.fpu softvfp
	.type	toshiba_readretry_exit, %function
toshiba_readretry_exit:
	@ args = 0, pretend = 0, frame = 0
	@ frame_needed = 0, uses_anonymous_args = 0
	@ link register save eliminated.
	movs	r0, #0
	bx	lr
	.size	toshiba_readretry_exit, .-toshiba_readretry_exit
	.section	.text.toshiba_exit_readretry,"ax",%progbits
	.align	1
	.global	toshiba_exit_readretry
	.syntax unified
	.thumb
	.thumb_func
	.fpu softvfp
	.type	toshiba_exit_readretry, %function
toshiba_exit_readretry:
	@ args = 0, pretend = 0, frame = 0
	@ frame_needed = 0, uses_anonymous_args = 0
	push	{r4, r5, r6, lr}
	mov	r4, r0
	ldr	r5, .L400
	ldrb	r2, [r5]	@ zero_extendqisi2
	subs	r2, r2, #16
	cmp	r2, #2
	bhi	.L394
	bl	nand_enable_chip
	ldr	r0, [r4, #268]
	bl	ndfc_disable_randomize
	ldr	r0, [r4, #268]
	bl	ndfc_is_toggle_interface
	ldr	r6, .L400+4
	cbz	r0, .L391
	ldr	r0, [r4, #268]
	bl	ndfc_set_legacy_interface
	movs	r3, #1
	str	r3, [r6]
.L391:
	ldrb	r3, [r5]	@ zero_extendqisi2
	cmp	r3, #17
	beq	.L395
	ldr	r1, .L400+8
	cmp	r3, #18
	ldr	r0, .L400+12
	it	eq
	moveq	r3, #5
	ldr	r2, .L400+16
	itt	ne
	movne	r3, #0
	movne	r2, r1
	ldr	r1, .L400+20
	it	ne
	movne	r1, r0
.L392:
	mov	r0, r4
	bl	toshiba_vender_set_param
	ldr	r3, [r6]
	mov	r5, r0
	cmp	r3, #1
	bne	.L393
	ldr	r0, [r4, #268]
	bl	ndfc_set_toggle_interface
.L393:
	mov	r0, r4
	bl	nand_disable_chip
.L389:
	mov	r0, r5
	pop	{r4, r5, r6, pc}
.L395:
	movs	r3, #5
	ldr	r2, .L400+16
	ldr	r1, .L400+24
	b	.L392
.L394:
	mvn	r5, #87
	b	.L389
.L401:
	.align	2
.L400:
	.word	.LANCHOR33
	.word	.LANCHOR43
	.word	.LANCHOR42
	.word	.LANCHOR46+24
	.word	.LANCHOR41
	.word	.LANCHOR45+50
	.word	.LANCHOR44+35
	.size	toshiba_exit_readretry, .-toshiba_exit_readretry
	.section	.text.toshiba_read_page_end,"ax",%progbits
	.align	1
	.global	toshiba_read_page_end
	.syntax unified
	.thumb
	.thumb_func
	.fpu softvfp
	.type	toshiba_read_page_end, %function
toshiba_read_page_end:
	@ args = 0, pretend = 0, frame = 0
	@ frame_needed = 0, uses_anonymous_args = 0
	ldr	r3, .L412
	push	{r0, r1, r2, r4, r5, r6, r7, r8, r10, lr}
	mov	r6, r0
	ldr	r1, [r0]
	ldr	r0, [r3]
	bl	nci_get_from_nsi
	mov	r5, r0
	mov	r0, r6
	bl	generic_read_page_end_not_retry
	adds	r3, r0, #2
	mov	r4, r0
	bne	.L402
	ldr	r0, .L412+4
	movs	r7, #0
	bl	NAND_Print_DBG
	ldr	r3, .L412+8
	movs	r2, #1
	ldr	r10, .L412+16
	mov	r8, r3
	str	r2, [r3]
.L404:
	ldrb	r3, [r10]	@ zero_extendqisi2
	cmp	r3, r7
	ble	.L407
	str	r7, [r5, #176]
	mov	r0, r5
	bl	toshiba_set_readretry
	mov	r4, r0
	cbnz	r0, .L405
	mov	r0, r6
	bl	generic_read_page_start
	mov	r4, r0
	mov	r0, r6
	bl	generic_read_page_end_not_retry
	orrs	r4, r4, r0
	cmp	r4, #10
	beq	.L406
	cbnz	r4, .L405
.L406:
	ldr	r3, [r5, #176]
	movs	r4, #10
	ldr	r1, [r5, #268]
	ldr	r0, .L412+12
	str	r3, [sp, #4]
	ldr	r3, [r6, #8]
	str	r3, [sp]
	ldr	r3, [r6, #4]
	ldr	r2, [r5, #20]
	ldr	r1, [r1, #8]
	bl	NAND_Print_DBG
.L407:
	movs	r3, #0
	mov	r0, r5
	str	r3, [r5, #176]
	str	r3, [r8]
	bl	toshiba_exit_readretry
.L402:
	mov	r0, r4
	add	sp, sp, #12
	@ sp needed
	pop	{r4, r5, r6, r7, r8, r10, pc}
.L405:
	adds	r7, r7, #1
	b	.L404
.L413:
	.align	2
.L412:
	.word	g_nsi
	.word	.LC45
	.word	.LANCHOR35
	.word	.LC46
	.word	.LANCHOR47
	.size	toshiba_read_page_end, .-toshiba_read_page_end
	.section	.text.toshiba_special_init,"ax",%progbits
	.align	1
	.global	toshiba_special_init
	.syntax unified
	.thumb
	.thumb_func
	.fpu softvfp
	.type	toshiba_special_init, %function
toshiba_special_init:
	@ args = 0, pretend = 0, frame = 0
	@ frame_needed = 0, uses_anonymous_args = 0
	push	{r3, r4, r5, lr}
	movs	r4, #0
	ldr	r3, .L419
	ldr	r3, [r3]
	ldr	r5, [r3, #8]
.L415:
	cbnz	r5, .L416
	ldr	r3, .L419+4
	ldrb	r1, [r3]	@ zero_extendqisi2
	ldr	r3, .L419+8
	ldrb	r2, [r3]	@ zero_extendqisi2
	ldr	r3, .L419+12
	ldrb	r3, [r3]	@ zero_extendqisi2
	cbnz	r4, .L417
	ldr	r0, .L419+16
	ldr	r5, .L419+20
	str	r5, [r0]
	ldr	r0, .L419+24
	bl	NAND_Print_DBG
.L414:
	mov	r0, r4
	pop	{r3, r4, r5, pc}
.L416:
	mov	r0, r5
	bl	toshiba_readretry_init
	ldr	r5, [r5]
	orrs	r4, r4, r0
	b	.L415
.L417:
	ldr	r0, .L419+28
	bl	NAND_Print
	b	.L414
.L420:
	.align	2
.L419:
	.word	g_nsi
	.word	.LANCHOR33
	.word	.LANCHOR47
	.word	.LANCHOR48
	.word	df_read_page_end
	.word	toshiba_read_page_end
	.word	.LC47
	.word	.LC48
	.size	toshiba_special_init, .-toshiba_special_init
	.section	.text.toshiba_special_exit,"ax",%progbits
	.align	1
	.global	toshiba_special_exit
	.syntax unified
	.thumb
	.thumb_func
	.fpu softvfp
	.type	toshiba_special_exit, %function
toshiba_special_exit:
	@ args = 0, pretend = 0, frame = 0
	@ frame_needed = 0, uses_anonymous_args = 0
	ldr	r3, .L424
	push	{r4, lr}
	ldr	r3, [r3]
	ldr	r4, [r3, #8]
.L422:
	cbnz	r4, .L423
	ldr	r0, .L424+4
	bl	NAND_Print_DBG
	mov	r0, r4
	pop	{r4, pc}
.L423:
	ldr	r4, [r4]
	b	.L422
.L425:
	.align	2
.L424:
	.word	g_nsi
	.word	.LC49
	.size	toshiba_special_exit, .-toshiba_special_exit
	.section	.text.micron_intel_set_feature,"ax",%progbits
	.align	1
	.global	micron_intel_set_feature
	.syntax unified
	.thumb
	.thumb_func
	.fpu softvfp
	.type	micron_intel_set_feature, %function
micron_intel_set_feature:
	@ args = 0, pretend = 0, frame = 16
	@ frame_needed = 0, uses_anonymous_args = 0
	push	{r4, r5, r6, r7, lr}
	sub	sp, sp, #20
	movs	r4, #0
	mov	r7, r0
	mov	r6, r2
	mov	r5, r1
	strb	r1, [sp, #7]
	add	r1, sp, #7
	strb	r2, [sp, #8]
	add	r2, sp, #8
	strb	r4, [sp, #9]
	strb	r4, [sp, #10]
	strb	r4, [sp, #11]
	bl	nand_set_feature
	add	r2, sp, #12
	add	r1, sp, #7
	mov	r0, r7
	bl	nand_get_feature
	ldrb	r2, [sp, #12]	@ zero_extendqisi2
	ldrb	r3, [sp, #8]	@ zero_extendqisi2
	cmp	r2, r3
	beq	.L428
	mov	r2, r6
	mov	r1, r5
	ldr	r0, .L429
	bl	NAND_Print
	mvn	r0, #71
.L426:
	add	sp, sp, #20
	@ sp needed
	pop	{r4, r5, r6, r7, pc}
.L428:
	mov	r0, r4
	b	.L426
.L430:
	.align	2
.L429:
	.word	.LC50
	.size	micron_intel_set_feature, .-micron_intel_set_feature
	.section	.text.micron_set_readretry,"ax",%progbits
	.align	1
	.global	micron_set_readretry
	.syntax unified
	.thumb
	.thumb_func
	.fpu softvfp
	.type	micron_set_readretry, %function
micron_set_readretry:
	@ args = 0, pretend = 0, frame = 0
	@ frame_needed = 0, uses_anonymous_args = 0
	push	{r3, r4, r5, r6, r7, lr}
	mov	r4, r0
	bl	nand_enable_chip
	ldr	r0, [r4, #268]
	bl	ndfc_disable_randomize
	ldr	r3, .L442
	ldrb	r3, [r3]	@ zero_extendqisi2
	sub	r2, r3, #64
	cmp	r2, #2
	bls	.L432
	cmp	r3, #80
	bne	.L440
.L432:
	ldrb	r6, [r4, #176]	@ zero_extendqisi2
	ldr	r7, .L442+4
	cmp	r6, #255
	it	eq
	moveq	r6, #0
	cmp	r3, #80
	bne	.L435
	ldr	r3, [r7]
	ldrb	r3, [r3, r6]	@ zero_extendqisi2
	cbz	r3, .L436
.L438:
	ldr	r3, [r4, #176]
	cmp	r3, #255
	bne	.L435
	movs	r2, #0
	movs	r1, #137
	mov	r0, r4
	bl	micron_intel_set_feature
	movs	r2, #0
	mov	r5, r0
	movs	r1, #147
	mov	r0, r4
	bl	micron_intel_set_feature
	orrs	r5, r5, r0
	b	.L433
.L436:
	movs	r2, #1
	movs	r1, #147
	mov	r0, r4
	bl	micron_intel_set_feature
	mov	r5, r0
	cmp	r0, #0
	beq	.L438
.L433:
	ldr	r3, [r4, #176]
	mov	r0, r4
	cmp	r3, #255
	itt	eq
	moveq	r3, #0
	streq	r3, [r4, #176]
	bl	nand_disable_chip
	mov	r0, r5
	pop	{r3, r4, r5, r6, r7, pc}
.L435:
	ldr	r3, [r7]
	movs	r1, #137
	mov	r0, r4
	ldrb	r2, [r3, r6]	@ zero_extendqisi2
	bl	micron_intel_set_feature
	mov	r5, r0
	b	.L433
.L440:
	movs	r5, #0
	b	.L433
.L443:
	.align	2
.L442:
	.word	.LANCHOR49
	.word	.LANCHOR50
	.size	micron_set_readretry, .-micron_set_readretry
	.section	.text.micron_read_page_end,"ax",%progbits
	.align	1
	.global	micron_read_page_end
	.syntax unified
	.thumb
	.thumb_func
	.fpu softvfp
	.type	micron_read_page_end, %function
micron_read_page_end:
	@ args = 0, pretend = 0, frame = 0
	@ frame_needed = 0, uses_anonymous_args = 0
	ldr	r3, .L454
	push	{r0, r1, r4, r5, r6, r7, r8, lr}
	mov	r6, r0
	ldr	r1, [r0]
	ldr	r0, [r3]
	bl	nci_get_from_nsi
	mov	r5, r0
	mov	r0, r6
	bl	generic_read_page_end_not_retry
	adds	r3, r0, #2
	mov	r4, r0
	bne	.L444
	ldr	r8, .L454+12
	movs	r7, #0
	ldr	r0, .L454+4
	bl	NAND_Print_DBG
.L446:
	ldrb	r3, [r8]	@ zero_extendqisi2
	cmp	r3, r7
	ble	.L449
	str	r7, [r5, #176]
	mov	r0, r5
	bl	micron_set_readretry
	mov	r4, r0
	cbnz	r0, .L447
	mov	r0, r6
	bl	generic_read_page_start
	mov	r4, r0
	mov	r0, r6
	bl	generic_read_page_end_not_retry
	orrs	r4, r4, r0
	cmp	r4, #10
	beq	.L448
	cbnz	r4, .L447
.L448:
	ldr	r3, [r5, #176]
	movs	r4, #10
	ldr	r1, [r5, #268]
	ldr	r0, .L454+8
	str	r3, [sp, #4]
	ldr	r3, [r6, #8]
	str	r3, [sp]
	ldr	r3, [r6, #4]
	ldr	r2, [r5, #20]
	ldr	r1, [r1, #8]
	bl	NAND_Print_DBG
.L449:
	movs	r3, #255
	mov	r0, r5
	str	r3, [r5, #176]
	bl	micron_set_readretry
.L444:
	mov	r0, r4
	add	sp, sp, #8
	@ sp needed
	pop	{r4, r5, r6, r7, r8, pc}
.L447:
	adds	r7, r7, #1
	b	.L446
.L455:
	.align	2
.L454:
	.word	g_nsi
	.word	.LC51
	.word	.LC52
	.word	.LANCHOR51
	.size	micron_read_page_end, .-micron_read_page_end
	.section	.text.micron_readretry_init,"ax",%progbits
	.align	1
	.global	micron_readretry_init
	.syntax unified
	.thumb
	.thumb_func
	.fpu softvfp
	.type	micron_readretry_init, %function
micron_readretry_init:
	@ args = 0, pretend = 0, frame = 0
	@ frame_needed = 0, uses_anonymous_args = 0
	push	{r3, r4, r5, r6, r7, r8, r10, lr}
	movs	r7, #0
	ldr	r3, [r0, #272]
	movs	r1, #137
	mov	r6, r0
	ldr	r10, .L464+28
	ldr	r3, [r3, #52]
	ldr	r5, .L464
	ldr	r8, .L464+32
	ldr	r4, .L464+4
	lsrs	r2, r3, #16
	lsrs	r3, r3, #8
	str	r7, [r0, #176]
	strb	r2, [r10]
	mov	r2, r7
	strb	r3, [r4]
	str	r8, [r5]
	bl	micron_intel_set_feature
	ldrb	r3, [r10]	@ zero_extendqisi2
	cmp	r3, #65
	bne	.L457
	movs	r3, #12
	str	r8, [r5]
	strb	r3, [r4]
.L458:
	ldrb	r1, [r4]	@ zero_extendqisi2
	ldr	r0, .L464+8
	bl	NAND_Print_DBG
	movs	r0, #0
	b	.L456
.L457:
	cmp	r3, #64
	bne	.L459
	ldr	r3, .L464+12
	str	r3, [r5]
	movs	r3, #10
.L463:
	strb	r3, [r4]
	b	.L458
.L459:
	cmp	r3, #80
	bne	.L460
	ldr	r3, .L464+16
	mov	r2, r7
	movs	r1, #147
	mov	r0, r6
	str	r3, [r5]
	movs	r3, #7
	strb	r3, [r4]
	bl	micron_intel_set_feature
	b	.L458
.L460:
	cmp	r3, #66
	bne	.L461
	ldr	r3, .L464+20
	str	r3, [r5]
	movs	r3, #18
	b	.L463
.L461:
	ldr	r0, .L464+24
	bl	NAND_Print
	mvn	r0, #70
.L456:
	pop	{r3, r4, r5, r6, r7, r8, r10, pc}
.L465:
	.align	2
.L464:
	.word	.LANCHOR50
	.word	.LANCHOR51
	.word	.LC54
	.word	.LANCHOR53
	.word	.LANCHOR54
	.word	.LANCHOR55
	.word	.LC53
	.word	.LANCHOR49
	.word	.LANCHOR52
	.size	micron_readretry_init, .-micron_readretry_init
	.section	.text.micron_readretry_exit,"ax",%progbits
	.align	1
	.global	micron_readretry_exit
	.syntax unified
	.thumb
	.thumb_func
	.fpu softvfp
	.type	micron_readretry_exit, %function
micron_readretry_exit:
	@ args = 0, pretend = 0, frame = 0
	@ frame_needed = 0, uses_anonymous_args = 0
	@ link register save eliminated.
	ldr	r3, .L467
	movs	r0, #0
	strb	r0, [r3]
	ldr	r3, .L467+4
	strb	r0, [r3]
	bx	lr
.L468:
	.align	2
.L467:
	.word	.LANCHOR49
	.word	.LANCHOR51
	.size	micron_readretry_exit, .-micron_readretry_exit
	.section	.text.micron_special_init,"ax",%progbits
	.align	1
	.global	micron_special_init
	.syntax unified
	.thumb
	.thumb_func
	.fpu softvfp
	.type	micron_special_init, %function
micron_special_init:
	@ args = 0, pretend = 0, frame = 0
	@ frame_needed = 0, uses_anonymous_args = 0
	push	{r3, r4, r5, lr}
	movs	r4, #0
	ldr	r3, .L474
	ldr	r3, [r3]
	ldr	r5, [r3, #8]
.L470:
	cbnz	r5, .L471
	ldr	r3, .L474+4
	ldrb	r1, [r3]	@ zero_extendqisi2
	ldr	r3, .L474+8
	ldrb	r2, [r3]	@ zero_extendqisi2
	cbnz	r4, .L472
	ldr	r0, .L474+12
	ldr	r3, .L474+16
	str	r0, [r3]
	ldr	r0, .L474+20
	bl	NAND_Print_DBG
.L469:
	mov	r0, r4
	pop	{r3, r4, r5, pc}
.L471:
	mov	r0, r5
	bl	micron_readretry_init
	ldr	r5, [r5]
	orrs	r4, r4, r0
	b	.L470
.L472:
	ldr	r0, .L474+24
	bl	NAND_Print
	b	.L469
.L475:
	.align	2
.L474:
	.word	g_nsi
	.word	.LANCHOR49
	.word	.LANCHOR51
	.word	micron_read_page_end
	.word	df_read_page_end
	.word	.LC55
	.word	.LC56
	.size	micron_special_init, .-micron_special_init
	.section	.text.micron_special_exit,"ax",%progbits
	.align	1
	.global	micron_special_exit
	.syntax unified
	.thumb
	.thumb_func
	.fpu softvfp
	.type	micron_special_exit, %function
micron_special_exit:
	@ args = 0, pretend = 0, frame = 0
	@ frame_needed = 0, uses_anonymous_args = 0
	push	{r3, r4, r5, lr}
	movs	r5, #0
	ldr	r3, .L483
	ldr	r2, .L483+4
	ldr	r3, [r3]
	ldrb	r1, [r2]	@ zero_extendqisi2
	ldr	r0, [r3, #8]
	ldr	r3, .L483+8
	ldrb	r4, [r3]	@ zero_extendqisi2
.L477:
	cbnz	r0, .L478
	cbz	r5, .L479
	strb	r1, [r2]
	strb	r4, [r3]
.L479:
	ldr	r0, .L483+12
	bl	NAND_Print_DBG
	movs	r0, #0
	pop	{r3, r4, r5, pc}
.L478:
	movs	r1, #0
	ldr	r0, [r0]
	movs	r5, #1
	mov	r4, r1
	b	.L477
.L484:
	.align	2
.L483:
	.word	g_nsi
	.word	.LANCHOR49
	.word	.LANCHOR51
	.word	.LC57
	.size	micron_special_exit, .-micron_special_exit
	.section	.text.hynix16nm_vender_set_param,"ax",%progbits
	.align	1
	.global	hynix16nm_vender_set_param
	.syntax unified
	.thumb
	.thumb_func
	.fpu softvfp
	.type	hynix16nm_vender_set_param, %function
hynix16nm_vender_set_param:
	@ args = 0, pretend = 0, frame = 0
	@ frame_needed = 0, uses_anonymous_args = 0
	@ link register save eliminated.
	b	hynix26nm_vender_set_param
	.size	hynix16nm_vender_set_param, .-hynix16nm_vender_set_param
	.section	.text.hynix16nm_set_readretry,"ax",%progbits
	.align	1
	.global	hynix16nm_set_readretry
	.syntax unified
	.thumb
	.thumb_func
	.fpu softvfp
	.type	hynix16nm_set_readretry, %function
hynix16nm_set_readretry:
	@ args = 0, pretend = 0, frame = 8
	@ frame_needed = 0, uses_anonymous_args = 0
	ldr	r3, .L491
	push	{r0, r1, r4, lr}
	ldr	r1, [r0, #176]
	ldrb	r3, [r3]	@ zero_extendqisi2
	cmp	r1, r3
	bhi	.L490
	ldr	r3, .L491+4
	lsls	r1, r1, #2
	movs	r2, #0
	ldrb	r3, [r3]	@ zero_extendqisi2
.L488:
	cmp	r3, r2
	bhi	.L489
	ldr	r2, .L491+8
	mov	r1, sp
	bl	hynix26nm_vender_set_param
.L486:
	add	sp, sp, #8
	@ sp needed
	pop	{r4, pc}
.L489:
	adds	r4, r1, r2
	add	r4, r4, r0
	ldrb	r4, [r4, #48]	@ zero_extendqisi2
	strb	r4, [sp, r2]
	adds	r2, r2, #1
	b	.L488
.L490:
	mvn	r0, #73
	b	.L486
.L492:
	.align	2
.L491:
	.word	.LANCHOR56
	.word	.LANCHOR57
	.word	.LANCHOR58
	.size	hynix16nm_set_readretry, .-hynix16nm_set_readretry
	.section	.text.hynix16nm_read_page_end,"ax",%progbits
	.align	1
	.global	hynix16nm_read_page_end
	.syntax unified
	.thumb
	.thumb_func
	.fpu softvfp
	.type	hynix16nm_read_page_end, %function
hynix16nm_read_page_end:
	@ args = 0, pretend = 0, frame = 0
	@ frame_needed = 0, uses_anonymous_args = 0
	ldr	r3, .L506
	push	{r0, r1, r2, r4, r5, r6, r7, r8, r10, lr}
	mov	r6, r0
	ldr	r1, [r0]
	ldr	r0, [r3]
	bl	nci_get_from_nsi
	mov	r5, r0
	mov	r0, r6
	bl	generic_read_page_end_not_retry
	adds	r3, r0, #2
	mov	r4, r0
	bne	.L493
	ldr	r7, .L506+4
	mov	r10, #0
	mov	r8, r10
	ldr	r0, .L506+8
	bl	NAND_Print_DBG
.L495:
	ldrb	r2, [r7]	@ zero_extendqisi2
	cmp	r2, r10
	ble	.L499
	ldr	r3, [r5, #176]
	mov	r0, r5
	adds	r3, r3, #1
	cmp	r3, r2
	it	hi
	movhi	r3, r8
	str	r3, [r5, #176]
	bl	hynix16nm_set_readretry
	mov	r4, r0
	cbz	r0, .L498
	movs	r3, #0
	mov	r0, r5
	str	r3, [r5, #176]
	bl	hynix16nm_set_readretry
.L499:
	movs	r3, #0
	mov	r0, r5
	str	r3, [r5, #176]
	bl	hynix16nm_set_readretry
.L493:
	mov	r0, r4
	add	sp, sp, #12
	@ sp needed
	pop	{r4, r5, r6, r7, r8, r10, pc}
.L498:
	mov	r0, r6
	bl	generic_read_page_start
	mov	r4, r0
	mov	r0, r6
	bl	generic_read_page_end_not_retry
	orrs	r4, r4, r0
	cmp	r4, #10
	beq	.L500
	cbnz	r4, .L501
.L500:
	ldr	r3, [r5, #176]
	movs	r4, #10
	ldr	r1, [r5, #268]
	ldr	r0, .L506+12
	str	r3, [sp, #4]
	ldr	r3, [r6, #8]
	str	r3, [sp]
	ldr	r3, [r6, #4]
	ldr	r2, [r5, #20]
	ldr	r1, [r1, #8]
	bl	NAND_Print_DBG
	b	.L499
.L501:
	add	r10, r10, #1
	b	.L495
.L507:
	.align	2
.L506:
	.word	g_nsi
	.word	.LANCHOR56
	.word	.LC58
	.word	.LC59
	.size	hynix16nm_read_page_end, .-hynix16nm_read_page_end
	.section	.text.hynix16nm_get_special_info,"ax",%progbits
	.align	1
	.global	hynix16nm_get_special_info
	.syntax unified
	.thumb
	.thumb_func
	.fpu softvfp
	.type	hynix16nm_get_special_info, %function
hynix16nm_get_special_info:
	@ args = 0, pretend = 0, frame = 8
	@ frame_needed = 0, uses_anonymous_args = 0
	push	{r0, r1, r4, r5, r6, r7, r8, r10, fp, lr}
	mov	r4, r0
	ldr	r0, .L521
	mov	r8, r1
	mov	r7, r2
	mov	r10, r3
	bl	NAND_Print_DBG
	mov	r0, sp
	bl	physic_info_get_offset
	cbz	r0, .L515
	ldr	r0, .L521+4
	bl	NAND_Print
	movs	r0, #1
.L508:
	add	sp, sp, #8
	@ sp needed
	pop	{r4, r5, r6, r7, r8, r10, fp, pc}
.L515:
	ldr	fp, .L521+8
	movs	r5, #4
	add	r6, r4, #9728
.L509:
	mov	r1, r5
	mov	r0, fp
	bl	NAND_Print_DBG
	ldrb	r3, [r6]	@ zero_extendqisi2
	cmp	r3, #165
	beq	.L511
	mov	r3, r4
	add	r2, sp, #4
	ldr	r1, [sp]
	mov	r0, r5
	bl	physic_info_get_one_copy
.L511:
	ldrb	r3, [r6]	@ zero_extendqisi2
	cmp	r3, #165
	bne	.L512
	add	r2, r4, #9728
	add	r1, r4, #10752
	adds	r2, r2, #2
	movs	r3, #0
.L513:
	ldrb	r0, [r2], #1	@ zero_extendqisi2
	cmp	r2, r1
	add	r3, r3, r0
	uxtb	r3, r3
	bne	.L513
	movw	r2, #9729
	ldrb	r2, [r4, r2]	@ zero_extendqisi2
	cmp	r2, r3
	bne	.L514
	mla	r1, r7, r10, r4
	mov	r0, r8
	mov	r2, r7
	add	r1, r1, #9728
	adds	r1, r1, #2
	bl	NAND_Memcpy
	movs	r0, #0
	b	.L508
.L514:
	movs	r3, #0
	strb	r3, [r6]
.L512:
	adds	r5, r5, #1
	cmp	r5, #51
	bne	.L509
	mov	r0, #-1
	b	.L508
.L522:
	.align	2
.L521:
	.word	.LC60
	.word	.LC61
	.word	.LC62
	.size	hynix16nm_get_special_info, .-hynix16nm_get_special_info
	.section	.text.hynix20nm_init_readretry_param,"ax",%progbits
	.align	1
	.global	hynix20nm_init_readretry_param
	.syntax unified
	.thumb
	.thumb_func
	.fpu softvfp
	.type	hynix20nm_init_readretry_param, %function
hynix20nm_init_readretry_param:
	@ args = 0, pretend = 0, frame = 64
	@ frame_needed = 0, uses_anonymous_args = 0
	ldr	r3, [r0, #272]
	push	{r4, r5, r6, r7, r8, lr}
	mov	r4, r0
	sub	sp, sp, #64
	ldr	r0, [r3, #16]
	lsls	r0, r0, #9
	bl	nand_get_temp_buf
	mov	r6, r0
	cbnz	r0, .L524
	mvn	r5, #93
	ldr	r0, .L532
	bl	NAND_Print_DBG
.L523:
	mov	r0, r5
	add	sp, sp, #64
	@ sp needed
	pop	{r4, r5, r6, r7, r8, pc}
.L524:
	mov	r0, #32768
	bl	nand_get_temp_buf
	cbnz	r0, .L526
	ldr	r3, [r4, #272]
	mov	r0, r6
	mvn	r5, #75
	ldr	r1, [r3, #16]
	lsls	r1, r1, #9
	bl	nand_free_temp_buf
	ldr	r0, .L532+4
	bl	NAND_Print
	b	.L523
.L526:
	ldr	r3, [r4, #16]
	movs	r2, #64
	mov	r1, r6
	bl	hynix16nm_get_special_info
	ldr	r3, [r4, #268]
	mov	r5, r0
	cbnz	r0, .L527
	ldr	r7, .L532+8
	ldr	r8, .L532+24
	ldr	r2, [r4, #16]
	ldr	r1, [r3, #8]
	ldr	r0, .L532+12
	bl	NAND_Print_DBG
.L529:
	ldrb	r1, [r6, r5]	@ zero_extendqisi2
	mov	r0, r7
	bl	NAND_Print_DBG
	and	r3, r5, #7
	cmp	r3, #7
	bne	.L528
	mov	r0, r8
	bl	NAND_Print_DBG
.L528:
	adds	r5, r5, #1
	cmp	r5, #64
	bne	.L529
	mov	r1, r6
	mov	r0, r4
	bl	hynix20nm_saveotpvalue
	mov	r0, r4
	bl	hynix20nm_set_default_param
	mov	r5, r0
.L530:
	ldr	r3, [r4, #272]
	mov	r0, r6
	ldr	r1, [r3, #16]
	lsls	r1, r1, #9
	bl	nand_free_temp_buf
	b	.L523
.L527:
	ldr	r1, [r3, #8]
	ldr	r0, .L532+16
	bl	NAND_Print_DBG
	mov	r1, sp
	mov	r0, r4
	bl	hynix20nm_getotpparam
	mov	r5, r0
	cmp	r0, #0
	bne	.L530
	mov	r0, r4
	bl	hynix20nm_set_default_param
	ldr	r3, [r4, #268]
	ldr	r0, .L532+20
	ldr	r1, [r3, #8]
	bl	NAND_Print_DBG
	b	.L530
.L533:
	.align	2
.L532:
	.word	.LC63
	.word	.LC64
	.word	.LC66
	.word	.LC65
	.word	.LC67
	.word	.LC68
	.word	.LC7
	.size	hynix20nm_init_readretry_param, .-hynix20nm_init_readretry_param
	.section	.text.hynix20nm_readretry_init,"ax",%progbits
	.align	1
	.global	hynix20nm_readretry_init
	.syntax unified
	.thumb
	.thumb_func
	.fpu softvfp
	.type	hynix20nm_readretry_init, %function
hynix20nm_readretry_init:
	@ args = 0, pretend = 0, frame = 0
	@ frame_needed = 0, uses_anonymous_args = 0
	ldr	r3, [r0, #272]
	ldr	r2, .L543
	push	{r4, lr}
	ldr	r3, [r3, #52]
	ubfx	r1, r3, #16, #8
	strb	r1, [r2]
	lsrs	r4, r3, #8
	ldr	r2, .L543+4
	cmp	r1, #2
	strb	r4, [r2]
	ldr	r2, .L543+8
	strb	r3, [r2]
	bne	.L535
	ldr	r3, .L543+12
	movs	r2, #204
	strb	r2, [r3]
	movs	r2, #191
	strb	r2, [r3, #1]
	movs	r2, #170
	strb	r2, [r3, #2]
	movs	r2, #171
	strb	r2, [r3, #3]
	movs	r2, #205
	strb	r2, [r3, #4]
	movs	r2, #173
	strb	r2, [r3, #5]
	movs	r2, #174
	strb	r2, [r3, #6]
	movs	r2, #175
.L542:
	strb	r2, [r3, #7]
	add	r1, r0, #176
	add	r2, r0, #48
	movs	r3, #0
	str	r3, [r0, #176]
.L539:
	strb	r3, [r2], #1
	cmp	r2, r1
	bne	.L539
	pop	{r4, lr}
	b	hynix20nm_init_readretry_param
.L535:
	cmp	r1, #3
	bne	.L537
	ldr	r3, .L543+12
	movs	r2, #176
	strb	r2, [r3]
	movs	r2, #177
	strb	r2, [r3, #1]
	movs	r2, #178
	strb	r2, [r3, #2]
	movs	r2, #179
	strb	r2, [r3, #3]
	movs	r2, #180
	strb	r2, [r3, #4]
	movs	r2, #181
	strb	r2, [r3, #5]
	movs	r2, #182
	strb	r2, [r3, #6]
	movs	r2, #183
	b	.L542
.L537:
	ldr	r0, .L543+16
	bl	NAND_Print
	mvn	r0, #92
	pop	{r4, pc}
.L544:
	.align	2
.L543:
	.word	.LANCHOR15
	.word	.LANCHOR12
	.word	.LANCHOR13
	.word	.LANCHOR14
	.word	.LC37
	.size	hynix20nm_readretry_init, .-hynix20nm_readretry_init
	.section	.text.hynix20nm_special_init,"ax",%progbits
	.align	1
	.global	hynix20nm_special_init
	.syntax unified
	.thumb
	.thumb_func
	.fpu softvfp
	.type	hynix20nm_special_init, %function
hynix20nm_special_init:
	@ args = 0, pretend = 0, frame = 0
	@ frame_needed = 0, uses_anonymous_args = 0
	push	{r3, r4, r5, lr}
	movs	r4, #0
	ldr	r3, .L550
	ldr	r3, [r3]
	ldr	r5, [r3, #8]
.L546:
	cbnz	r5, .L547
	ldr	r3, .L550+4
	ldrb	r1, [r3]	@ zero_extendqisi2
	ldr	r3, .L550+8
	ldrb	r2, [r3]	@ zero_extendqisi2
	ldr	r3, .L550+12
	ldrb	r3, [r3]	@ zero_extendqisi2
	cbnz	r4, .L548
	ldr	r0, .L550+16
	ldr	r5, .L550+20
	str	r5, [r0]
	ldr	r0, .L550+24
	bl	NAND_Print_DBG
.L545:
	mov	r0, r4
	pop	{r3, r4, r5, pc}
.L547:
	mov	r0, r5
	bl	hynix20nm_readretry_init
	ldr	r5, [r5]
	orrs	r4, r4, r0
	b	.L546
.L548:
	ldr	r0, .L550+28
	bl	NAND_Print
	b	.L545
.L551:
	.align	2
.L550:
	.word	g_nsi
	.word	.LANCHOR15
	.word	.LANCHOR12
	.word	.LANCHOR13
	.word	df_read_page_end
	.word	hynix20nm_read_page_end
	.word	.LC69
	.word	.LC70
	.size	hynix20nm_special_init, .-hynix20nm_special_init
	.section	.text.hynix16nm_write_page_FF,"ax",%progbits
	.align	1
	.global	hynix16nm_write_page_FF
	.syntax unified
	.thumb
	.thumb_func
	.fpu softvfp
	.type	hynix16nm_write_page_FF, %function
hynix16nm_write_page_FF:
	@ args = 0, pretend = 0, frame = 16
	@ frame_needed = 0, uses_anonymous_args = 0
	ldr	r3, .L571
	push	{r4, r5, r6, r7, r8, r10, fp, lr}
	mov	r10, r0
	sub	sp, sp, #24
	mov	r6, r1
	ldr	r1, [r0]
	ldr	r0, [r3]
	bl	nci_get_from_nsi
	ldr	r4, [r0, #268]
	mov	r5, r0
	ldr	r2, [r0, #20]
	ldr	r1, [r10, #4]
	ldr	r3, [r4, #12]
	add	r7, r4, #32
	ldr	ip, [r0, #24]
	cmp	r2, r3
	bcs	.L553
	cmp	r1, ip
	bcc	.L554
.L553:
	strd	r1, ip, [sp]
	ldr	r1, [r4, #8]
	mvn	r4, #107
	ldr	r0, .L571+4
	bl	NAND_Print
.L552:
	mov	r0, r4
	add	sp, sp, #24
	@ sp needed
	pop	{r4, r5, r6, r7, r8, r10, fp, pc}
.L554:
	bl	nand_read_chip_status_ready
	mov	r0, r5
	bl	nand_enable_chip
	ldr	r0, [r5, #268]
	bl	ndfc_disable_randomize
	ldr	r0, [r5, #268]
	bl	ndfc_disable_ecc
	mov	r0, r7
	bl	ndfc_clean_cmd_seq
	cmp	r6, #8
	beq	.L563
	cmp	r6, #16
	beq	.L564
	movs	r3, #0
	str	r3, [sp, #12]
.L568:
	str	r3, [sp, #8]
	add	r3, r4, #56
	str	r3, [sp, #16]
	mov	r8, #0
	ldr	r3, [sp, #8]
	mov	r6, r8
	subs	r3, r3, #1
	str	r3, [sp, #20]
.L557:
	ldr	r3, [sp, #8]
	lsl	fp, r6, #10
	cmp	r6, r3
	bne	.L561
	movs	r3, #0
	movs	r1, #16
	str	r3, [r4, #32]
	movs	r3, #1
	strd	r3, r1, [r4, #40]
	mov	r1, r7
	str	r3, [r4, #48]
	str	r3, [r4, #116]
	ldr	r0, [r5, #268]
	bl	ndfc_execute_cmd
	mov	r0, r5
	bl	nand_read_chip_status_ready
	mov	r4, r0
	cbz	r0, .L562
	ldr	r0, .L571+8
	bl	NAND_Print
.L562:
	mov	r0, r5
	bl	nand_disable_chip
	b	.L552
.L563:
	mov	r3, #832
	str	r3, [sp, #12]
	movs	r3, #9
	b	.L568
.L564:
	mov	r3, #640
	str	r3, [sp, #12]
	movs	r3, #18
	b	.L568
.L561:
	ldr	r1, [r10, #16]
	cbnz	r6, .L558
	movs	r3, #1
	movs	r0, #128
	mov	r2, #1024
	strd	r3, r0, [r4, #40]
	str	r3, [r4, #48]
	str	r3, [r4, #88]
	strd	r3, r3, [r4, #80]
	str	r1, [r4, #100]
	str	r2, [r4, #92]
	str	r3, [r4, #76]
	ldrd	r1, r2, [r10, #4]
	str	r6, [r4, #32]
	ldr	r0, [r5, #36]
	bl	get_row_addr
	movs	r3, #5
	mov	r8, r0
	str	r3, [r4, #72]
	mov	r2, r0
	ldr	r3, [sp, #16]
	movs	r1, #2
	str	r3, [sp]
	movs	r3, #3
.L569:
	mov	r0, fp
	adds	r6, r6, #1
	bl	fill_cmd_addr
	mov	r1, r7
	ldr	r0, [r5, #268]
	bl	ndfc_execute_cmd
	b	.L557
.L558:
	ldr	r3, [sp, #20]
	add	r1, r1, fp
	movs	r2, #133
	str	r1, [r4, #100]
	str	r2, [r4, #44]
	movs	r2, #1
	cmp	r3, r6
	str	r2, [r4, #40]
	ite	eq
	ldreq	r1, [sp, #12]
	movne	r1, #1024
	str	r2, [r4, #48]
	movs	r3, #0
	str	r2, [r4, #88]
	strd	r2, r2, [r4, #80]
	str	r2, [r4, #76]
	ldr	r2, [sp, #16]
	str	r1, [r4, #92]
	movs	r1, #2
	str	r3, [r4, #32]
	str	r1, [r4, #72]
	str	r2, [sp]
	mov	r2, r8
	b	.L569
.L572:
	.align	2
.L571:
	.word	g_nsi
	.word	.LC18
	.word	.LC71
	.size	hynix16nm_write_page_FF, .-hynix16nm_write_page_FF
	.section	.text.hynix16nm_vender_get_param,"ax",%progbits
	.align	1
	.global	hynix16nm_vender_get_param
	.syntax unified
	.thumb
	.thumb_func
	.fpu softvfp
	.type	hynix16nm_vender_get_param, %function
hynix16nm_vender_get_param:
	@ args = 0, pretend = 0, frame = 0
	@ frame_needed = 0, uses_anonymous_args = 0
	@ link register save eliminated.
	b	hynix26nm_vender_get_param
	.size	hynix16nm_vender_get_param, .-hynix16nm_vender_get_param
	.section	.text.hynix16nm_major_check_byte,"ax",%progbits
	.align	1
	.global	hynix16nm_major_check_byte
	.syntax unified
	.thumb
	.thumb_func
	.fpu softvfp
	.type	hynix16nm_major_check_byte, %function
hynix16nm_major_check_byte:
	@ args = 8, pretend = 0, frame = 8
	@ frame_needed = 0, uses_anonymous_args = 0
	push	{r0, r1, r4, r5, r6, r7, r8, r10, fp, lr}
	mov	r10, r0
	ldr	r8, [sp, #44]
	mov	r5, r2
	mov	fp, r3
	str	r1, [sp, #4]
	cmp	r2, r8, lsr #1
	bcs	.L593
	mov	r2, r8
	mov	r1, r5
	ldr	r0, .L596
	bl	NAND_Print
	mvn	r0, #106
	movs	r3, #255
	strb	r3, [r10]
.L574:
	add	sp, sp, #8
	@ sp needed
	pop	{r4, r5, r6, r7, r8, r10, fp, pc}
.L579:
	ldrb	lr, [r0], #1	@ zero_extendqisi2
	tst	lr, r1
	ite	ne
	addne	r2, r2, #1
	addeq	r3, r3, #1
.L590:
	cmp	ip, r0
	bne	.L579
	cmp	r5, r2
	bcs	.L580
.L595:
	orrs	r7, r7, r1
	uxtb	r7, r7
.L581:
	adds	r6, r6, #1
.L588:
	adds	r4, r4, #1
	cmp	r4, #8
	bne	.L575
	cmp	r6, #8
	iteet	ne
	movne	r3, #255
	strbeq	r7, [r10]
	moveq	r0, #0
	strbne	r3, [r10]
	it	ne
	mvnne	r0, #79
	b	.L574
.L586:
	ldrb	lr, [r0], #1	@ zero_extendqisi2
	tst	lr, r1
	ite	ne
	addne	r3, r3, #1
	addeq	r2, r2, #1
	b	.L583
.L593:
	movs	r6, #0
	mov	r7, r6
	mov	r4, r6
.L575:
	movs	r1, #1
	movs	r3, #0
	lsls	r1, r1, r4
	mov	r0, fp
	add	ip, r8, fp
	mov	r2, r3
	b	.L590
.L580:
	cmp	r5, r3
	bcc	.L581
	ldr	r0, [sp, #4]
	cmp	r0, #1
	bne	.L582
	ldr	r0, [sp, #40]
	movs	r3, #0
	mov	r2, r3
	add	ip, r8, r0
.L583:
	cmp	r0, ip
	bne	.L586
	cmp	r5, r2
	bcc	.L595
	cmp	r5, r3
	bcc	.L581
.L582:
	mov	r1, r4
	ldr	r0, .L596+4
	bl	NAND_Print
	mov	r1, r4
	ldr	r0, .L596+8
	bl	NAND_Print
	b	.L588
.L597:
	.align	2
.L596:
	.word	.LC72
	.word	.LC73
	.word	.LC74
	.size	hynix16nm_major_check_byte, .-hynix16nm_major_check_byte
	.section	.text.hynix16nm_get_read_retry_cfg,"ax",%progbits
	.align	1
	.global	hynix16nm_get_read_retry_cfg
	.syntax unified
	.thumb
	.thumb_func
	.fpu softvfp
	.type	hynix16nm_get_read_retry_cfg, %function
hynix16nm_get_read_retry_cfg:
	@ args = 0, pretend = 0, frame = 64
	@ frame_needed = 0, uses_anonymous_args = 0
	push	{r4, r5, r6, r7, r8, r10, fp, lr}
	sub	sp, sp, #72
	add	r4, sp, #8
	mov	fp, r0
	mov	r5, r1
	mov	r8, r2
	movs	r1, #0
	movs	r2, #32
	mov	r0, r4
	add	r7, sp, #40
	mov	r10, r3
	bl	memset
	movs	r2, #32
	movs	r1, #0
	mov	r0, r7
	bl	memset
	movs	r3, #0
.L599:
	ldrb	r2, [r10, r3]	@ zero_extendqisi2
	strb	r2, [r4, r3]
	adds	r3, r3, #1
	cmp	r3, #8
	bne	.L599
	strd	r7, r3, [sp]
	movs	r2, #4
	mov	r3, r4
	movs	r1, #0
	mov	r0, fp
	bl	hynix16nm_major_check_byte
	subs	r6, r0, #0
	bge	.L600
	ldr	r0, .L621
.L620:
	bl	NAND_Print
.L598:
	mov	r0, r6
	add	sp, sp, #72
	@ sp needed
	pop	{r4, r5, r6, r7, r8, r10, fp, pc}
.L600:
	ldrb	r1, [fp]	@ zero_extendqisi2
	ldr	r0, .L621+4
	bl	NAND_Print_DBG
	add	r2, r10, #7
	movs	r3, #0
.L602:
	ldrb	r1, [r2, #1]!	@ zero_extendqisi2
	strb	r1, [r4, r3]
	adds	r3, r3, #1
	cmp	r3, #8
	bne	.L602
	strd	r7, r3, [sp]
	movs	r2, #4
	mov	r3, r4
	movs	r1, #0
	mov	r0, r5
	bl	hynix16nm_major_check_byte
	subs	r6, r0, #0
	bge	.L603
	ldr	r0, .L621+8
	b	.L620
.L603:
	ldrb	r1, [r5]	@ zero_extendqisi2
	ldr	r0, .L621+12
	bl	NAND_Print_DBG
	ldrb	r1, [fp]	@ zero_extendqisi2
	ldrb	r2, [r5]	@ zero_extendqisi2
	cmp	r1, #8
	bne	.L604
	cmp	r2, #4
	beq	.L611
.L604:
	ldr	r0, .L621+16
	mvn	r6, #80
	bl	NAND_Print
	b	.L598
.L607:
	adds	r5, r5, #1
	cmp	r5, #32
	bne	.L605
	movs	r6, #0
	b	.L608
.L611:
	movs	r5, #0
.L605:
	add	r2, r10, r5
	movs	r3, #0
.L606:
	ldrb	r1, [r2, #16]	@ zero_extendqisi2
	adds	r2, r2, #64
	strb	r1, [r4, r3]
	ldrb	r1, [r2, #-16]	@ zero_extendqisi2
	strb	r1, [r7, r3]
	adds	r3, r3, #1
	cmp	r3, #8
	bne	.L606
	strd	r7, r3, [sp]
	movs	r2, #4
	mov	r3, r4
	movs	r1, #1
	add	r0, r8, r5
	bl	hynix16nm_major_check_byte
	subs	r6, r0, #0
	bge	.L607
	mov	r1, r5
	ldr	r0, .L621+20
	bl	NAND_Print
.L608:
	ldr	r7, .L621+24
	movs	r4, #0
	ldr	r5, .L621+28
.L610:
	lsls	r3, r4, #29
	bne	.L609
	cbz	r4, .L609
	mov	r0, r7
	bl	NAND_Print_DBG
.L609:
	ldrb	r1, [r8, r4]	@ zero_extendqisi2
	mov	r0, r5
	adds	r4, r4, #1
	bl	NAND_Print_DBG
	cmp	r4, #32
	bne	.L610
	ldr	r0, .L621+24
	bl	NAND_Print_DBG
	b	.L598
.L622:
	.align	2
.L621:
	.word	.LC75
	.word	.LC76
	.word	.LC77
	.word	.LC78
	.word	.LC79
	.word	.LC80
	.word	.LC7
	.word	.LC81
	.size	hynix16nm_get_read_retry_cfg, .-hynix16nm_get_read_retry_cfg
	.section	.text.hynix16nm_read_otp_info_hynix,"ax",%progbits
	.align	1
	.global	hynix16nm_read_otp_info_hynix
	.syntax unified
	.thumb
	.thumb_func
	.fpu softvfp
	.type	hynix16nm_read_otp_info_hynix, %function
hynix16nm_read_otp_info_hynix:
	@ args = 0, pretend = 0, frame = 16
	@ frame_needed = 0, uses_anonymous_args = 0
	push	{r4, r5, r6, r7, r8, r10, fp, lr}
	mov	r4, r0
	sub	sp, sp, #32
	mov	r8, r1
	bl	nand_enable_chip
	ldr	r0, [r4, #268]
	bl	ndfc_disable_randomize
	ldr	r2, [r4, #20]
	ldr	r3, [r4, #268]
	ldr	r0, .L628
	add	r3, r3, r2, lsl #2
	ldr	r2, [r3, #1148]
	ldr	r1, [r3, #1116]
	bl	NAND_Print_DBG
	cmp	r8, #0
	bne	.L624
	mov	r0, r4
	bl	nand_disable_chip
	ldr	r0, .L628+4
	bl	NAND_Print
	mvn	r0, #78
.L623:
	add	sp, sp, #32
	@ sp needed
	pop	{r4, r5, r6, r7, r8, r10, fp, pc}
.L624:
	movs	r2, #1
	movs	r1, #255
	mov	r0, r4
	movs	r6, #1
	bl	set_one_cmd
	add	r7, sp, #20
	movs	r3, #82
	movs	r5, #56
	mov	fp, #54
	strb	r3, [sp, #20]
	movs	r2, #0
	add	r3, sp, #24
	add	r1, sp, #16
	strd	r6, r6, [sp, #4]
	mov	r0, r4
	str	r7, [sp]
	mov	r10, #48
	strb	r5, [sp, #24]
	strb	fp, [sp, #16]
	bl	set_cmd_with_nand_bus
	movs	r2, #0
	movs	r1, #22
	mov	r0, r4
	bl	set_one_cmd
	movs	r2, #0
	movs	r1, #23
	mov	r0, r4
	bl	set_one_cmd
	movs	r2, #0
	movs	r1, #4
	mov	r0, r4
	bl	set_one_cmd
	movs	r2, #0
	movs	r1, #25
	mov	r0, r4
	bl	set_one_cmd
	movs	r2, #0
	mov	r0, r4
	mov	r1, r2
	bl	set_one_cmd
	movs	r1, #0
	mov	r0, r4
	bl	set_one_addr
	movs	r1, #0
	mov	r0, r4
	bl	set_one_addr
	movs	r1, #0
	mov	r0, r4
	bl	set_one_addr
	movs	r1, #2
	mov	r0, r4
	bl	set_one_addr
	movs	r1, #0
	mov	r0, r4
	bl	set_one_addr
	mov	r3, #528
	movs	r2, #0
	str	r3, [sp]
	add	r1, sp, #16
	mov	r3, r8
	mov	r0, r4
	strb	r10, [sp, #16]
	bl	get_data_with_nand_bus_one_cmd
	mov	r2, r6
	movs	r1, #255
	mov	r0, r4
	bl	set_one_cmd
	strb	r5, [sp, #24]
	movs	r5, #0
	add	r3, sp, #24
	mov	r2, r5
	add	r1, sp, #16
	strd	r6, r6, [sp, #4]
	str	r7, [sp]
	mov	r0, r4
	strb	fp, [sp, #16]
	strb	r5, [sp, #20]
	bl	set_cmd_with_nand_bus
	mov	r2, r5
	movs	r1, #22
	mov	r0, r4
	bl	set_one_cmd
	mov	r2, r5
	mov	r1, r5
	mov	r0, r4
	bl	set_one_cmd
	mov	r1, r5
	mov	r0, r4
	bl	set_one_addr
	mov	r1, r5
	mov	r0, r4
	bl	set_one_addr
	mov	r1, r5
	mov	r0, r4
	bl	set_one_addr
	mov	r1, r5
	mov	r0, r4
	bl	set_one_addr
	mov	r1, r5
	mov	r0, r4
	bl	set_one_addr
	mov	r2, r6
	mov	r1, r10
	mov	r0, r4
	bl	set_one_cmd
	ldrb	r1, [r8]	@ zero_extendqisi2
	ldrb	r2, [r8, #1]	@ zero_extendqisi2
	cmp	r1, #8
	bne	.L626
	cmp	r2, #8
	beq	.L627
.L626:
	ldr	r0, .L628+8
	bl	NAND_Print
	mov	r0, r4
	bl	nand_disable_chip
	mvn	r0, #95
	b	.L623
.L627:
	mov	r0, r4
	bl	nand_disable_chip
	mov	r0, r5
	b	.L623
.L629:
	.align	2
.L628:
	.word	.LC82
	.word	.LC83
	.word	.LC22
	.size	hynix16nm_read_otp_info_hynix, .-hynix16nm_read_otp_info_hynix
	.section	.text.hynix16nm_get_rr_value_otp_hynix,"ax",%progbits
	.align	1
	.global	hynix16nm_get_rr_value_otp_hynix
	.syntax unified
	.thumb
	.thumb_func
	.fpu softvfp
	.type	hynix16nm_get_rr_value_otp_hynix, %function
hynix16nm_get_rr_value_otp_hynix:
	@ args = 0, pretend = 0, frame = 8
	@ frame_needed = 0, uses_anonymous_args = 0
	push	{r0, r1, r4, r5, r6, lr}
	mov	r4, r0
	mov	r0, #528
	bl	nand_get_temp_buf
	mov	r5, r0
	cbnz	r0, .L631
	mvn	r6, #77
	ldr	r0, .L635
	bl	NAND_Print
.L630:
	mov	r0, r6
	add	sp, sp, #8
	@ sp needed
	pop	{r4, r5, r6, pc}
.L631:
	mov	r1, r0
	mov	r0, r4
	bl	hynix16nm_read_otp_info_hynix
	cmp	r0, #0
	bge	.L633
	ldr	r3, [r4, #268]
	ldr	r2, [r4, #20]
	ldr	r0, .L635+4
	ldr	r1, [r3, #8]
	bl	NAND_Print
.L633:
	mov	r3, r5
	add	r2, r4, #48
	add	r1, sp, #7
	add	r0, sp, #6
	bl	hynix16nm_get_read_retry_cfg
	subs	r6, r0, #0
	bge	.L634
	ldr	r3, [r4, #268]
	ldr	r2, [r4, #20]
	ldr	r0, .L635+8
	ldr	r1, [r3, #8]
	bl	NAND_Print
.L634:
	mov	r1, #528
	mov	r0, r5
	bl	nand_free_temp_buf
	b	.L630
.L636:
	.align	2
.L635:
	.word	.LC84
	.word	.LC85
	.word	.LC86
	.size	hynix16nm_get_rr_value_otp_hynix, .-hynix16nm_get_rr_value_otp_hynix
	.section	.text.hynix16nm_save_otp_value,"ax",%progbits
	.align	1
	.global	hynix16nm_save_otp_value
	.syntax unified
	.thumb
	.thumb_func
	.fpu softvfp
	.type	hynix16nm_save_otp_value, %function
hynix16nm_save_otp_value:
	@ args = 0, pretend = 0, frame = 0
	@ frame_needed = 0, uses_anonymous_args = 0
	@ link register save eliminated.
	subs	r3, r1, #1
	adds	r0, r0, #48
	adds	r1, r1, #31
.L638:
	ldrb	r2, [r3, #1]!	@ zero_extendqisi2
	cmp	r3, r1
	strb	r2, [r0], #1
	bne	.L638
	bx	lr
	.size	hynix16nm_save_otp_value, .-hynix16nm_save_otp_value
	.section	.text.hynix16nm_get_otp_param,"ax",%progbits
	.align	1
	.global	hynix16nm_get_otp_param
	.syntax unified
	.thumb
	.thumb_func
	.fpu softvfp
	.type	hynix16nm_get_otp_param, %function
hynix16nm_get_otp_param:
	@ args = 0, pretend = 0, frame = 0
	@ frame_needed = 0, uses_anonymous_args = 0
	push	{r3, r4, r5, r6, r7, lr}
	mov	r4, r0
	ldr	r7, .L647
	mov	r5, r1
	movs	r6, #0
.L641:
	mov	r1, r6
	mov	r0, r7
	bl	NAND_Print_DBG
	mov	r0, r4
	adds	r6, r6, #1
	bl	hynix16nm_get_rr_value_otp_hynix
	cmp	r0, #0
	bne	.L641
	mov	r0, r4
	mov	r1, r5
	adds	r4, r4, #32
.L642:
	mov	r2, r1
	movs	r3, #0
.L643:
	adds	r5, r0, r3
	adds	r3, r3, #1
	ldrb	r5, [r5, #48]	@ zero_extendqisi2
	cmp	r3, #4
	strb	r5, [r2], #1
	bne	.L643
	adds	r0, r0, #4
	adds	r1, r1, #4
	cmp	r0, r4
	bne	.L642
	movs	r0, #0
	pop	{r3, r4, r5, r6, r7, pc}
.L648:
	.align	2
.L647:
	.word	.LC25
	.size	hynix16nm_get_otp_param, .-hynix16nm_get_otp_param
	.section	.text.hynix16nm_set_default_param,"ax",%progbits
	.align	1
	.global	hynix16nm_set_default_param
	.syntax unified
	.thumb
	.thumb_func
	.fpu softvfp
	.type	hynix16nm_set_default_param, %function
hynix16nm_set_default_param:
	@ args = 0, pretend = 0, frame = 8
	@ frame_needed = 0, uses_anonymous_args = 0
	push	{r0, r1, r2, r4, r5, r6, r7, lr}
	add	r1, r0, #48
	ldr	r5, .L654
	movs	r2, #0
	ldrb	r3, [r5]	@ zero_extendqisi2
.L650:
	cmp	r3, r2
	bhi	.L651
	ldr	r7, .L654+4
	mov	r1, sp
	ldr	r2, .L654+8
	movs	r4, #0
	bl	hynix26nm_vender_set_param
	mov	r6, r0
	ldr	r0, .L654+12
	bl	NAND_Print_DBG
.L652:
	ldrb	r3, [r5]	@ zero_extendqisi2
	cmp	r3, r4
	bhi	.L653
	ldr	r0, .L654+16
	bl	NAND_Print_DBG
	mov	r0, r6
	add	sp, sp, #12
	@ sp needed
	pop	{r4, r5, r6, r7, pc}
.L651:
	ldrb	r4, [r1], #1	@ zero_extendqisi2
	strb	r4, [sp, r2]
	adds	r2, r2, #1
	b	.L650
.L653:
	ldrb	r1, [sp, r4]	@ zero_extendqisi2
	mov	r0, r7
	bl	NAND_Print_DBG
	adds	r4, r4, #1
	b	.L652
.L655:
	.align	2
.L654:
	.word	.LANCHOR57
	.word	.LC28
	.word	.LANCHOR58
	.word	.LC27
	.word	.LC7
	.size	hynix16nm_set_default_param, .-hynix16nm_set_default_param
	.section	.text.hynix16nm_init_readretry_param,"ax",%progbits
	.align	1
	.global	hynix16nm_init_readretry_param
	.syntax unified
	.thumb
	.thumb_func
	.fpu softvfp
	.type	hynix16nm_init_readretry_param, %function
hynix16nm_init_readretry_param:
	@ args = 0, pretend = 0, frame = 64
	@ frame_needed = 0, uses_anonymous_args = 0
	ldr	r3, [r0, #272]
	push	{r4, r5, r6, r7, r8, r10, lr}
	mov	r4, r0
	sub	sp, sp, #68
	ldr	r0, [r3, #16]
	lsls	r0, r0, #9
	bl	nand_get_temp_buf
	mov	r6, r0
	cmp	r0, #0
	beq	.L663
	mov	r0, #32768
	bl	nand_get_temp_buf
	mov	r7, r0
	cbnz	r0, .L658
	ldr	r3, [r4, #272]
	mov	r0, r6
	ldr	r1, [r3, #16]
	lsls	r1, r1, #9
	bl	nand_free_temp_buf
	ldr	r0, .L665
	bl	NAND_Print
	mvn	r0, #75
.L656:
	add	sp, sp, #68
	@ sp needed
	pop	{r4, r5, r6, r7, r8, r10, pc}
.L658:
	ldr	r3, [r4, #16]
	movs	r2, #32
	mov	r1, r6
	bl	hynix16nm_get_special_info
	ldr	r3, [r4, #268]
	mov	r5, r0
	cbnz	r0, .L659
	ldr	r8, .L665+16
	mov	r2, r0
	ldr	r10, .L665+20
	ldr	r1, [r3, #8]
	ldr	r0, .L665+4
	bl	NAND_Print_DBG
.L661:
	ldrb	r1, [r6, r5]	@ zero_extendqisi2
	mov	r0, r8
	bl	NAND_Print_DBG
	and	r3, r5, #7
	cmp	r3, #7
	bne	.L660
	mov	r0, r10
	bl	NAND_Print_DBG
.L660:
	adds	r5, r5, #1
	cmp	r5, #32
	bne	.L661
	mov	r0, r4
	mov	r1, r6
	bl	hynix16nm_save_otp_value
	mov	r0, r4
	bl	hynix16nm_set_default_param
.L662:
	mov	r1, #32768
	mov	r0, r7
	bl	nand_free_temp_buf
	ldr	r3, [r4, #272]
	mov	r0, r6
	ldr	r1, [r3, #16]
	lsls	r1, r1, #9
	bl	nand_free_temp_buf
	movs	r0, #0
	b	.L656
.L659:
	ldr	r1, [r3, #8]
	ldr	r0, .L665+8
	bl	NAND_Print_DBG
	mov	r1, sp
	mov	r0, r4
	bl	hynix16nm_get_otp_param
	mov	r0, r4
	bl	hynix16nm_set_default_param
	ldr	r3, [r4, #268]
	movs	r2, #0
	ldr	r0, .L665+12
	ldr	r1, [r3, #8]
	bl	NAND_Print_DBG
	b	.L662
.L663:
	mvn	r0, #76
	b	.L656
.L666:
	.align	2
.L665:
	.word	.LC64
	.word	.LC87
	.word	.LC67
	.word	.LC88
	.word	.LC66
	.word	.LC7
	.size	hynix16nm_init_readretry_param, .-hynix16nm_init_readretry_param
	.section	.text.hynix16nm_readretry_init,"ax",%progbits
	.align	1
	.global	hynix16nm_readretry_init
	.syntax unified
	.thumb
	.thumb_func
	.fpu softvfp
	.type	hynix16nm_readretry_init, %function
hynix16nm_readretry_init:
	@ args = 0, pretend = 0, frame = 0
	@ frame_needed = 0, uses_anonymous_args = 0
	ldr	r3, [r0, #272]
	ldr	r2, .L672
	push	{r4, lr}
	ldr	r3, [r3, #52]
	ubfx	r1, r3, #16, #8
	strb	r1, [r2]
	lsrs	r4, r3, #8
	ldr	r2, .L672+4
	cmp	r1, #4
	strb	r4, [r2]
	ldr	r2, .L672+8
	strb	r3, [r2]
	bne	.L668
	ldr	r3, .L672+12
	movs	r2, #56
	add	r1, r0, #176
	strb	r2, [r3]
	movs	r2, #57
	strb	r2, [r3, #1]
	movs	r2, #58
	strb	r2, [r3, #2]
	movs	r2, #59
	strb	r2, [r3, #3]
	add	r2, r0, #48
	movs	r3, #0
	str	r3, [r0, #176]
.L669:
	strb	r3, [r2], #1
	cmp	r2, r1
	bne	.L669
	bl	hynix16nm_init_readretry_param
	movs	r0, #0
.L667:
	pop	{r4, pc}
.L668:
	ldr	r0, .L672+16
	bl	NAND_Print
	mvn	r0, #74
	b	.L667
.L673:
	.align	2
.L672:
	.word	.LANCHOR59
	.word	.LANCHOR56
	.word	.LANCHOR57
	.word	.LANCHOR58
	.word	.LC37
	.size	hynix16nm_readretry_init, .-hynix16nm_readretry_init
	.section	.text.hynix16nm_readretry_exit,"ax",%progbits
	.align	1
	.global	hynix16nm_readretry_exit
	.syntax unified
	.thumb
	.thumb_func
	.fpu softvfp
	.type	hynix16nm_readretry_exit, %function
hynix16nm_readretry_exit:
	@ args = 0, pretend = 0, frame = 0
	@ frame_needed = 0, uses_anonymous_args = 0
	push	{r4, lr}
	mov	r4, r0
	ldr	r0, .L675
	bl	NAND_Print_DBG
	mov	r0, r4
	bl	hynix16nm_set_default_param
	movs	r0, #0
	str	r0, [r4, #176]
	pop	{r4, pc}
.L676:
	.align	2
.L675:
	.word	.LC89
	.size	hynix16nm_readretry_exit, .-hynix16nm_readretry_exit
	.section	.text.hynix16nm_special_init,"ax",%progbits
	.align	1
	.global	hynix16nm_special_init
	.syntax unified
	.thumb
	.thumb_func
	.fpu softvfp
	.type	hynix16nm_special_init, %function
hynix16nm_special_init:
	@ args = 0, pretend = 0, frame = 0
	@ frame_needed = 0, uses_anonymous_args = 0
	push	{r3, r4, r5, lr}
	movs	r4, #0
	ldr	r3, .L682
	ldr	r3, [r3]
	ldr	r5, [r3, #8]
.L678:
	cbnz	r5, .L679
	ldr	r3, .L682+4
	ldrb	r1, [r3]	@ zero_extendqisi2
	ldr	r3, .L682+8
	ldrb	r2, [r3]	@ zero_extendqisi2
	ldr	r3, .L682+12
	ldrb	r3, [r3]	@ zero_extendqisi2
	cbnz	r4, .L680
	ldr	r0, .L682+16
	ldr	r5, .L682+20
	str	r5, [r0]
	ldr	r0, .L682+24
	bl	NAND_Print_DBG
.L677:
	mov	r0, r4
	pop	{r3, r4, r5, pc}
.L679:
	mov	r0, r5
	bl	hynix16nm_readretry_init
	ldr	r5, [r5]
	orrs	r4, r4, r0
	b	.L678
.L680:
	ldr	r0, .L682+28
	bl	NAND_Print
	b	.L677
.L683:
	.align	2
.L682:
	.word	g_nsi
	.word	.LANCHOR59
	.word	.LANCHOR56
	.word	.LANCHOR57
	.word	df_read_page_end
	.word	hynix16nm_read_page_end
	.word	.LC90
	.word	.LC91
	.size	hynix16nm_special_init, .-hynix16nm_special_init
	.section	.text.hynix16nm_special_exit,"ax",%progbits
	.align	1
	.global	hynix16nm_special_exit
	.syntax unified
	.thumb
	.thumb_func
	.fpu softvfp
	.type	hynix16nm_special_exit, %function
hynix16nm_special_exit:
	@ args = 0, pretend = 0, frame = 0
	@ frame_needed = 0, uses_anonymous_args = 0
	ldr	r3, .L687
	push	{r4, lr}
	ldr	r3, [r3]
	ldr	r4, [r3, #8]
.L685:
	cbnz	r4, .L686
	ldr	r0, .L687+4
	bl	NAND_Print_DBG
	mov	r0, r4
	pop	{r4, pc}
.L686:
	mov	r0, r4
	bl	hynix16nm_readretry_exit
	ldr	r4, [r4]
	b	.L685
.L688:
	.align	2
.L687:
	.word	g_nsi
	.word	.LC92
	.size	hynix16nm_special_exit, .-hynix16nm_special_exit
	.section	.text.sandisk_read_retry_clock_save,"ax",%progbits
	.align	1
	.global	sandisk_read_retry_clock_save
	.syntax unified
	.thumb
	.thumb_func
	.fpu softvfp
	.type	sandisk_read_retry_clock_save, %function
sandisk_read_retry_clock_save:
	@ args = 0, pretend = 0, frame = 0
	@ frame_needed = 0, uses_anonymous_args = 0
	push	{r4, lr}
	mov	r4, r0
	ldr	r3, .L690
	ldr	r0, [r0, #268]
	ldr	r3, [r3]
	ldr	r2, .L690+4
	ldr	r1, .L690+8
	ldr	r0, [r0, #8]
	blx	r3
	ldr	r0, [r4, #268]
	movs	r2, #20
	ldr	r3, .L690+12
	movs	r1, #10
	ldr	r0, [r0, #8]
	ldr	r3, [r3]
	blx	r3
	movs	r0, #0
	pop	{r4, pc}
.L691:
	.align	2
.L690:
	.word	NAND_GetClk
	.word	.LANCHOR60
	.word	.LANCHOR61
	.word	NAND_SetClk
	.size	sandisk_read_retry_clock_save, .-sandisk_read_retry_clock_save
	.section	.text.sandisk_vender_set_param,"ax",%progbits
	.align	1
	.global	sandisk_vender_set_param
	.syntax unified
	.thumb
	.thumb_func
	.fpu softvfp
	.type	sandisk_vender_set_param, %function
sandisk_vender_set_param:
	@ args = 0, pretend = 0, frame = 0
	@ frame_needed = 0, uses_anonymous_args = 0
	push	{r4, r5, r6, r7, r8, r10, lr}
	mov	r6, r2
	ldr	r2, .L696
	sub	sp, sp, #20
	mov	r5, r0
	mov	r7, r1
	movs	r4, #0
	ldrb	r3, [r2]	@ zero_extendqisi2
	mov	r8, r2
	subs	r3, r3, #48
	cmp	r3, #1
	bhi	.L695
	movs	r3, #2
	mov	r2, r4
	strd	r4, r3, [sp, #4]
	mov	r3, r4
	ldr	r1, .L696+4
	str	r4, [sp]
	bl	set_cmd_with_nand_bus
	movs	r3, #1
	movs	r2, #3
	strd	r3, r2, [sp, #4]
	mov	r10, r0
	str	r7, [sp]
	mov	r3, r6
	mov	r2, r4
	ldr	r1, .L696+8
	mov	r0, r5
	bl	set_cmd_with_nand_bus
	orr	r0, r10, r0
.L693:
	ldrb	r3, [r8]	@ zero_extendqisi2
	cmp	r3, #50
	bne	.L692
	movs	r3, #4
	movs	r2, #1
	strd	r3, r2, [sp, #4]
	mov	r0, r5
	str	r7, [sp]
	mov	r3, r6
	ldr	r1, .L696+12
	bl	set_cmd_with_nand_bus
.L692:
	add	sp, sp, #20
	@ sp needed
	pop	{r4, r5, r6, r7, r8, r10, pc}
.L695:
	mov	r0, r4
	b	.L693
.L697:
	.align	2
.L696:
	.word	.LANCHOR62
	.word	.LANCHOR63
	.word	.LANCHOR64
	.word	.LANCHOR65
	.size	sandisk_vender_set_param, .-sandisk_vender_set_param
	.section	.text.sandisk_read_retry_clock_recover,"ax",%progbits
	.align	1
	.global	sandisk_read_retry_clock_recover
	.syntax unified
	.thumb
	.thumb_func
	.fpu softvfp
	.type	sandisk_read_retry_clock_recover, %function
sandisk_read_retry_clock_recover:
	@ args = 0, pretend = 0, frame = 0
	@ frame_needed = 0, uses_anonymous_args = 0
	push	{r3, lr}
	ldr	r0, [r0, #268]
	ldr	r3, .L699
	ldr	r2, .L699+4
	ldr	r1, .L699+8
	ldr	r3, [r3]
	ldr	r2, [r2]
	ldr	r1, [r1]
	ldr	r0, [r0, #8]
	blx	r3
	movs	r0, #0
	pop	{r3, pc}
.L700:
	.align	2
.L699:
	.word	NAND_SetClk
	.word	.LANCHOR60
	.word	.LANCHOR61
	.size	sandisk_read_retry_clock_recover, .-sandisk_read_retry_clock_recover
	.section	.text.sandisk_end_one_read_retry,"ax",%progbits
	.align	1
	.global	sandisk_end_one_read_retry
	.syntax unified
	.thumb
	.thumb_func
	.fpu softvfp
	.type	sandisk_end_one_read_retry, %function
sandisk_end_one_read_retry:
	@ args = 0, pretend = 0, frame = 0
	@ frame_needed = 0, uses_anonymous_args = 0
	ldr	r3, .L708
	push	{r4, r5, lr}
	mov	r4, r0
	sub	sp, sp, #20
	ldrb	r3, [r3]	@ zero_extendqisi2
	subs	r3, r3, #48
	cmp	r3, #1
	bhi	.L702
	bl	nand_enable_chip
	ldr	r0, [r4, #268]
	bl	ndfc_disable_randomize
	ldr	r0, [r4, #268]
	bl	ndfc_is_toggle_interface
	ldr	r5, .L708+4
	cbz	r0, .L703
	ldr	r0, [r4, #268]
	bl	ndfc_set_legacy_interface
	movs	r3, #1
	str	r3, [r5]
.L703:
	movs	r3, #0
	movs	r2, #1
	strd	r3, r2, [sp, #4]
	mov	r0, r4
	str	r3, [sp]
	mov	r2, r3
	ldr	r1, .L708+8
	bl	set_cmd_with_nand_bus
	ldr	r3, [r5]
	cmp	r3, #1
	bne	.L704
	ldr	r0, [r4, #268]
	bl	ndfc_set_toggle_interface
.L704:
	mov	r0, r4
	bl	nand_disable_chip
.L702:
	movs	r0, #0
	add	sp, sp, #20
	@ sp needed
	pop	{r4, r5, pc}
.L709:
	.align	2
.L708:
	.word	.LANCHOR62
	.word	.LANCHOR66
	.word	.LANCHOR67
	.size	sandisk_end_one_read_retry, .-sandisk_end_one_read_retry
	.section	.text.sandisk_set_readretry,"ax",%progbits
	.align	1
	.global	sandisk_set_readretry
	.syntax unified
	.thumb
	.thumb_func
	.fpu softvfp
	.type	sandisk_set_readretry, %function
sandisk_set_readretry:
	@ args = 0, pretend = 0, frame = 0
	@ frame_needed = 0, uses_anonymous_args = 0
	push	{r4, r5, r6, lr}
	mov	r4, r0
	mov	r6, r1
	ldr	r5, .L735
	bl	sandisk_read_retry_clock_save
	mov	r0, r4
	bl	nand_enable_chip
	ldr	r0, [r4, #268]
	bl	ndfc_disable_randomize
	ldr	r0, [r4, #268]
	bl	ndfc_is_toggle_interface
	cbz	r0, .L711
	ldr	r0, [r4, #268]
	bl	ndfc_set_legacy_interface
	movs	r3, #1
	str	r3, [r5]
.L711:
	ldr	r3, .L735+4
	ldrb	r3, [r3]	@ zero_extendqisi2
	cmp	r3, #48
	bne	.L712
	cmp	r6, #255
	ldr	r3, [r4, #176]
	ldr	r2, .L735+8
	beq	.L713
	cbz	r6, .L714
	lsls	r1, r6, #31
	bpl	.L713
.L714:
	ldr	r1, .L735+12
	add	r3, r3, r3, lsl #1
	add	r1, r1, r3
	movs	r3, #16
.L732:
	strb	r3, [r2]
	movs	r3, #3
	ldr	r2, .L735+16
.L734:
	mov	r0, r4
	bl	sandisk_vender_set_param
	movs	r2, #0
	mov	r6, r0
	movs	r1, #182
.L733:
	mov	r0, r4
	bl	set_one_cmd
.L716:
	ldr	r3, [r5]
	cmp	r3, #1
	bne	.L718
	ldr	r0, [r4, #268]
	bl	ndfc_set_toggle_interface
.L718:
	mov	r0, r4
	bl	nand_disable_chip
	mov	r0, r4
	bl	sandisk_read_retry_clock_recover
	mov	r0, r6
	pop	{r4, r5, r6, pc}
.L713:
	ldr	r1, .L735+20
	add	r3, r3, r3, lsl #1
	add	r1, r1, r3
	movs	r3, #20
	b	.L732
.L712:
	cmp	r3, #49
	bne	.L717
	ldr	r1, [r4, #176]
	movs	r3, #3
	ldr	r0, .L735+24
	ldr	r2, .L735+28
	add	r1, r1, r1, lsl #1
	add	r1, r1, r0
	b	.L734
.L717:
	cmp	r3, #50
	bne	.L719
	ldr	r0, [r4, #176]
	movs	r3, #1
	ldr	r1, .L735+32
	ldr	r2, .L735+36
	add	r1, r1, r0, lsl #2
	mov	r0, r4
	bl	sandisk_vender_set_param
	movs	r2, #0
	mov	r6, r0
	movs	r1, #93
	b	.L733
.L719:
	movs	r6, #0
	b	.L716
.L736:
	.align	2
.L735:
	.word	.LANCHOR66
	.word	.LANCHOR62
	.word	.LANCHOR69
	.word	.LANCHOR68
	.word	.LANCHOR71
	.word	.LANCHOR70
	.word	.LANCHOR73
	.word	.LANCHOR72
	.word	.LANCHOR75
	.word	.LANCHOR74
	.size	sandisk_set_readretry, .-sandisk_set_readretry
	.section	.text.sandisk_activation_seq,"ax",%progbits
	.align	1
	.global	sandisk_activation_seq
	.syntax unified
	.thumb
	.thumb_func
	.fpu softvfp
	.type	sandisk_activation_seq, %function
sandisk_activation_seq:
	@ args = 0, pretend = 0, frame = 24
	@ frame_needed = 0, uses_anonymous_args = 0
	push	{r4, r5, r6, r7, r8, lr}
	mov	r8, #9
	sub	sp, sp, #40
	mov	r6, r0
	mov	r2, r8
	add	r0, sp, #16
	ldr	r1, .L742
	movs	r4, #0
	bl	memcpy
	mov	r0, r6
	strd	r4, r4, [sp, #28]
	strb	r4, [sp, #36]
	add	r7, sp, #28
	bl	nand_enable_chip
	ldr	r0, [r6, #268]
	bl	ndfc_disable_randomize
	movs	r3, #2
	mov	r2, r4
	strd	r4, r3, [sp, #4]
	mov	r0, r6
	mov	r3, r4
	ldr	r1, .L742+4
	str	r4, [sp]
	bl	set_cmd_with_nand_bus
	movs	r3, #1
	mov	r5, r0
	strd	r7, r3, [sp]
	mov	r2, r4
	str	r8, [sp, #8]
	add	r1, sp, #16
	ldr	r3, .L742+8
	mov	r0, r6
	bl	set_cmd_with_nand_bus
	orrs	r5, r5, r0
	mov	r0, r6
	bl	nand_disable_chip
	cbz	r5, .L737
	mov	r1, r5
	ldr	r0, .L742+12
	bl	NAND_Print
.L737:
	mov	r0, r5
	add	sp, sp, #40
	@ sp needed
	pop	{r4, r5, r6, r7, r8, pc}
.L743:
	.align	2
.L742:
	.word	.LANCHOR76
	.word	.LANCHOR63
	.word	.LANCHOR77
	.word	.LC93
	.size	sandisk_activation_seq, .-sandisk_activation_seq
	.section	.text.sandisk_readretry_init,"ax",%progbits
	.align	1
	.global	sandisk_readretry_init
	.syntax unified
	.thumb
	.thumb_func
	.fpu softvfp
	.type	sandisk_readretry_init, %function
sandisk_readretry_init:
	@ args = 0, pretend = 0, frame = 0
	@ frame_needed = 0, uses_anonymous_args = 0
	push	{r3, r4, r5, lr}
	movs	r2, #0
	ldr	r3, [r0, #272]
	str	r2, [r0, #176]
	ldr	r4, [r3, #52]
	ldr	r2, .L748
	ldr	r3, .L748+4
	ubfx	r1, r4, #16, #8
	lsrs	r5, r4, #8
	strb	r1, [r2]
	subs	r1, r1, #48
	strb	r5, [r3]
	cmp	r1, #1
	ldr	r5, .L748+8
	strb	r4, [r5]
	mov	r5, r2
	mov	r4, r3
	bhi	.L745
	bl	sandisk_activation_seq
.L745:
	ldrb	r3, [r5]	@ zero_extendqisi2
	subs	r3, r3, #48
	cmp	r3, #2
	bhi	.L747
	ldrb	r1, [r4]	@ zero_extendqisi2
	ldr	r0, .L748+12
	bl	NAND_Print_DBG
	movs	r0, #0
.L744:
	pop	{r3, r4, r5, pc}
.L747:
	mvn	r0, #98
	b	.L744
.L749:
	.align	2
.L748:
	.word	.LANCHOR62
	.word	.LANCHOR69
	.word	.LANCHOR78
	.word	.LC94
	.size	sandisk_readretry_init, .-sandisk_readretry_init
	.section	.text.sandisk_readretry_exit,"ax",%progbits
	.align	1
	.global	sandisk_readretry_exit
	.syntax unified
	.thumb
	.thumb_func
	.fpu softvfp
	.type	sandisk_readretry_exit, %function
sandisk_readretry_exit:
	@ args = 0, pretend = 0, frame = 0
	@ frame_needed = 0, uses_anonymous_args = 0
	@ link register save eliminated.
	movs	r0, #0
	bx	lr
	.size	sandisk_readretry_exit, .-sandisk_readretry_exit
	.section	.text.sandisk_exit_readretry,"ax",%progbits
	.align	1
	.global	sandisk_exit_readretry
	.syntax unified
	.thumb
	.thumb_func
	.fpu softvfp
	.type	sandisk_exit_readretry, %function
sandisk_exit_readretry:
	@ args = 0, pretend = 0, frame = 8
	@ frame_needed = 0, uses_anonymous_args = 0
	push	{r0, r1, r4, r5, r6, lr}
	movs	r3, #0
	mov	r4, r0
	str	r3, [sp, #4]
	bl	nand_enable_chip
	ldr	r0, [r4, #268]
	bl	ndfc_disable_randomize
	ldr	r0, [r4, #268]
	bl	ndfc_is_toggle_interface
	ldr	r6, .L762
	cbz	r0, .L752
	ldr	r0, [r4, #268]
	bl	ndfc_set_legacy_interface
	movs	r3, #1
	str	r3, [r6]
.L752:
	ldr	r3, .L762+4
	ldrb	r3, [r3]	@ zero_extendqisi2
	cmp	r3, #48
	bne	.L753
	ldr	r2, .L762+8
	movs	r3, #3
.L761:
	add	r1, sp, #4
	mov	r0, r4
	bl	sandisk_vender_set_param
	mov	r5, r0
.L754:
	ldr	r3, [r6]
	cmp	r3, #1
	bne	.L756
	ldr	r0, [r4, #268]
	bl	ndfc_set_toggle_interface
.L756:
	mov	r0, r4
	bl	nand_disable_chip
	mov	r0, r5
	add	sp, sp, #8
	@ sp needed
	pop	{r4, r5, r6, pc}
.L753:
	cmp	r3, #49
	bne	.L755
	movs	r3, #3
	ldr	r2, .L762+12
	b	.L761
.L755:
	cmp	r3, #50
	bne	.L757
	movs	r2, #1
	movs	r1, #255
	mov	r0, r4
	bl	set_one_cmd
	movs	r3, #1
	ldr	r2, .L762+16
	b	.L761
.L757:
	movs	r5, #0
	b	.L754
.L763:
	.align	2
.L762:
	.word	.LANCHOR66
	.word	.LANCHOR62
	.word	.LANCHOR71
	.word	.LANCHOR72
	.word	.LANCHOR74
	.size	sandisk_exit_readretry, .-sandisk_exit_readretry
	.section	.text.sandisk_special_init,"ax",%progbits
	.align	1
	.global	sandisk_special_init
	.syntax unified
	.thumb
	.thumb_func
	.fpu softvfp
	.type	sandisk_special_init, %function
sandisk_special_init:
	@ args = 0, pretend = 0, frame = 0
	@ frame_needed = 0, uses_anonymous_args = 0
	push	{r3, r4, r5, lr}
	movs	r4, #0
	ldr	r3, .L769
	ldr	r3, [r3]
	ldr	r5, [r3, #8]
.L765:
	cbnz	r5, .L766
	ldr	r3, .L769+4
	ldrb	r1, [r3]	@ zero_extendqisi2
	ldr	r3, .L769+8
	ldrb	r2, [r3]	@ zero_extendqisi2
	ldr	r3, .L769+12
	ldrb	r3, [r3]	@ zero_extendqisi2
	cbnz	r4, .L767
	ldr	r0, .L769+16
	ldr	r5, .L769+20
	str	r5, [r0]
	ldr	r0, .L769+24
	bl	NAND_Print_DBG
.L764:
	mov	r0, r4
	pop	{r3, r4, r5, pc}
.L766:
	mov	r0, r5
	bl	sandisk_readretry_init
	ldr	r5, [r5]
	orrs	r4, r4, r0
	b	.L765
.L767:
	ldr	r0, .L769+28
	bl	NAND_Print
	b	.L764
.L770:
	.align	2
.L769:
	.word	g_nsi
	.word	.LANCHOR62
	.word	.LANCHOR69
	.word	.LANCHOR78
	.word	df_read_page_end
	.word	sandisk_read_page_end
	.word	.LC95
	.word	.LC96
	.size	sandisk_special_init, .-sandisk_special_init
	.section	.text.sandisk_special_exit,"ax",%progbits
	.align	1
	.global	sandisk_special_exit
	.syntax unified
	.thumb
	.thumb_func
	.fpu softvfp
	.type	sandisk_special_exit, %function
sandisk_special_exit:
	@ args = 0, pretend = 0, frame = 0
	@ frame_needed = 0, uses_anonymous_args = 0
	ldr	r3, .L774
	push	{r4, lr}
	ldr	r3, [r3]
	ldr	r4, [r3, #8]
.L772:
	cbnz	r4, .L773
	ldr	r0, .L774+4
	bl	NAND_Print_DBG
	mov	r0, r4
	pop	{r4, pc}
.L773:
	ldr	r4, [r4]
	b	.L772
.L775:
	.align	2
.L774:
	.word	g_nsi
	.word	.LC97
	.size	sandisk_special_exit, .-sandisk_special_exit
	.section	.text.samsung_vender_set_param,"ax",%progbits
	.align	1
	.global	samsung_vender_set_param
	.syntax unified
	.thumb
	.thumb_func
	.fpu softvfp
	.type	samsung_vender_set_param, %function
samsung_vender_set_param:
	@ args = 0, pretend = 0, frame = 0
	@ frame_needed = 0, uses_anonymous_args = 0
	push	{r4, r5, lr}
	sub	sp, sp, #20
	str	r3, [sp, #8]
	movs	r3, #1
	mov	r4, r1
	strd	r1, r3, [sp]
	mov	r3, r2
	ldr	r1, .L777
	movs	r2, #0
	bl	set_cmd_with_nand_bus
	mov	r5, r0
	ldrb	r0, [r4, #3]	@ zero_extendqisi2
	ldrb	r3, [r4, #2]	@ zero_extendqisi2
	ldrb	r2, [r4, #1]	@ zero_extendqisi2
	str	r0, [sp]
	ldrb	r1, [r4]	@ zero_extendqisi2
	ldr	r0, .L777+4
	bl	NAND_Print_DBG
	mov	r0, r5
	add	sp, sp, #20
	@ sp needed
	pop	{r4, r5, pc}
.L778:
	.align	2
.L777:
	.word	.LANCHOR79
	.word	.LC31
	.size	samsung_vender_set_param, .-samsung_vender_set_param
	.section	.text.samsung_readretry_init,"ax",%progbits
	.align	1
	.global	samsung_readretry_init
	.syntax unified
	.thumb
	.thumb_func
	.fpu softvfp
	.type	samsung_readretry_init, %function
samsung_readretry_init:
	@ args = 0, pretend = 0, frame = 0
	@ frame_needed = 0, uses_anonymous_args = 0
	ldr	r2, [r0, #272]
	movs	r3, #0
	push	{r4, lr}
	ldr	r4, .L785
	ldrh	r2, [r2, #54]
	ldr	r1, [r0, #8]
	str	r3, [r0, #176]
	strb	r2, [r4]
	ldr	r2, .L785+4
	ldr	r3, .L785+8
	cmp	r1, r2
	bne	.L780
	ldrh	r1, [r0, #12]
	movw	r2, #51876
	cmp	r1, r2
	bne	.L780
	movs	r2, #255
.L784:
	strb	r2, [r3]
	ldr	r0, .L785+12
	ldrb	r1, [r3]	@ zero_extendqisi2
	bl	NAND_Print_DBG
	ldrb	r3, [r4]	@ zero_extendqisi2
	cmp	r3, #32
	ite	ne
	mvnne	r0, #99
	moveq	r0, #0
	pop	{r4, pc}
.L780:
	movs	r2, #15
	b	.L784
.L786:
	.align	2
.L785:
	.word	.LANCHOR80
	.word	-1013653780
	.word	.LANCHOR81
	.word	.LC98
	.size	samsung_readretry_init, .-samsung_readretry_init
	.section	.text.samsung_readretry_exit,"ax",%progbits
	.align	1
	.global	samsung_readretry_exit
	.syntax unified
	.thumb
	.thumb_func
	.fpu softvfp
	.type	samsung_readretry_exit, %function
samsung_readretry_exit:
	@ args = 0, pretend = 0, frame = 0
	@ frame_needed = 0, uses_anonymous_args = 0
	@ link register save eliminated.
	movs	r0, #0
	bx	lr
	.size	samsung_readretry_exit, .-samsung_readretry_exit
	.section	.text.samsung_set_readretry_K9GCGD8U0F,"ax",%progbits
	.align	1
	.global	samsung_set_readretry_K9GCGD8U0F
	.syntax unified
	.thumb
	.thumb_func
	.fpu softvfp
	.type	samsung_set_readretry_K9GCGD8U0F, %function
samsung_set_readretry_K9GCGD8U0F:
	@ args = 0, pretend = 0, frame = 16
	@ frame_needed = 0, uses_anonymous_args = 0
	push	{r4, r5, lr}
	movs	r3, #0
	sub	sp, sp, #20
	mov	r4, r0
	strb	r3, [sp, #7]
	strd	r3, r3, [sp, #8]
	bl	nand_enable_chip
	ldr	r0, [r4, #268]
	bl	ndfc_disable_randomize
	ldrb	r3, [r4, #176]	@ zero_extendqisi2
	add	r2, sp, #8
	add	r1, sp, #7
	mov	r0, r4
	strb	r3, [sp, #8]
	strb	r3, [sp, #9]
	strb	r3, [sp, #10]
	strb	r3, [sp, #11]
	mov	r3, #-1
	str	r3, [sp, #12]
	bl	nand_set_read_retry_K9GCGD8U0F
	add	r2, sp, #12
	add	r1, sp, #7
	mov	r0, r4
	bl	nand_get_read_retry_K9GCGD8U0F
	ldrb	r2, [sp, #12]	@ zero_extendqisi2
	mov	r5, r0
	ldrb	r3, [sp, #8]	@ zero_extendqisi2
	cmp	r2, r3
	bne	.L789
	ldrb	r2, [sp, #13]	@ zero_extendqisi2
	ldrb	r3, [sp, #9]	@ zero_extendqisi2
	cmp	r2, r3
	bne	.L789
	ldrb	r2, [sp, #14]	@ zero_extendqisi2
	ldrb	r3, [sp, #10]	@ zero_extendqisi2
	cmp	r2, r3
	bne	.L789
	ldrb	r2, [sp, #15]	@ zero_extendqisi2
	ldrb	r3, [sp, #11]	@ zero_extendqisi2
	cmp	r2, r3
	beq	.L790
.L789:
	mov	r5, #-1
	ldr	r1, .L792
	ldr	r0, .L792+4
	bl	NAND_Print
.L790:
	ldr	r3, [r4, #176]
	mov	r0, r4
	cmp	r3, #255
	itt	eq
	moveq	r3, #0
	streq	r3, [r4, #176]
	bl	nand_disable_chip
	mov	r0, r5
	add	sp, sp, #20
	@ sp needed
	pop	{r4, r5, pc}
.L793:
	.align	2
.L792:
	.word	.LANCHOR82
	.word	.LC99
	.size	samsung_set_readretry_K9GCGD8U0F, .-samsung_set_readretry_K9GCGD8U0F
	.section	.text.samsung_set_readretry,"ax",%progbits
	.align	1
	.global	samsung_set_readretry
	.syntax unified
	.thumb
	.thumb_func
	.fpu softvfp
	.type	samsung_set_readretry, %function
samsung_set_readretry:
	@ args = 0, pretend = 0, frame = 0
	@ frame_needed = 0, uses_anonymous_args = 0
	push	{r3, r4, r5, lr}
	mov	r4, r0
	bl	nand_enable_chip
	ldr	r0, [r4, #268]
	bl	ndfc_disable_randomize
	ldr	r2, [r4, #8]
	ldr	r3, .L804
	cmp	r2, r3
	bne	.L795
	ldrh	r2, [r4, #12]
	movw	r3, #51876
	cmp	r2, r3
	bne	.L795
	mov	r0, r4
	bl	samsung_set_readretry_K9GCGD8U0F
	mov	r5, r0
	cbz	r0, .L796
	ldr	r1, [r4, #176]
	ldr	r0, .L804+4
.L803:
	bl	NAND_Print
.L796:
	mov	r0, r4
	bl	nand_disable_chip
	mov	r0, r5
	pop	{r3, r4, r5, pc}
.L795:
	ldr	r0, [r4, #176]
	movs	r3, #4
	ldr	r1, .L804+8
	ldr	r2, .L804+12
	add	r1, r1, r0, lsl #2
	mov	r0, r4
	bl	samsung_vender_set_param
	mov	r5, r0
	cmp	r0, #0
	beq	.L796
	ldr	r1, [r4, #176]
	ldr	r0, .L804+16
	b	.L803
.L805:
	.align	2
.L804:
	.word	-1013653780
	.word	.LC100
	.word	.LANCHOR84
	.word	.LANCHOR83
	.word	.LC101
	.size	samsung_set_readretry, .-samsung_set_readretry
	.section	.text.samsung_read_page_end,"ax",%progbits
	.align	1
	.global	samsung_read_page_end
	.syntax unified
	.thumb
	.thumb_func
	.fpu softvfp
	.type	samsung_read_page_end, %function
samsung_read_page_end:
	@ args = 0, pretend = 0, frame = 0
	@ frame_needed = 0, uses_anonymous_args = 0
	ldr	r3, .L818
	push	{r0, r1, r2, r4, r5, r6, r7, r8, r10, lr}
	mov	r6, r0
	ldr	r1, [r0]
	ldr	r0, [r3]
	bl	nci_get_from_nsi
	mov	r5, r0
	mov	r0, r6
	bl	generic_read_page_end_not_retry
	adds	r3, r0, #2
	mov	r4, r0
	bne	.L806
	ldr	r8, .L818+12
	movs	r7, #1
	ldr	r10, .L818+16
	ldr	r0, .L818+4
	bl	NAND_Print_DBG
.L808:
	ldrb	r3, [r8]	@ zero_extendqisi2
	cmp	r3, r7
	ble	.L813
	ldr	r3, [r5, #8]
	cmp	r3, r10
	bne	.L809
	ldrh	r2, [r5, #12]
	movw	r3, #51876
	cmp	r2, r3
	bne	.L809
	rsb	r3, r7, #256
	str	r3, [r5, #176]
.L810:
	mov	r0, r5
	bl	samsung_set_readretry
	mov	r4, r0
	cbnz	r0, .L811
	mov	r0, r6
	bl	generic_read_page_start
	mov	r4, r0
	mov	r0, r6
	bl	generic_read_page_end_not_retry
	orrs	r4, r4, r0
	cmp	r4, #10
	beq	.L812
	cbnz	r4, .L811
.L812:
	ldr	r3, [r5, #176]
	movs	r4, #10
	ldr	r1, [r5, #268]
	ldr	r0, .L818+8
	str	r3, [sp, #4]
	ldr	r3, [r6, #8]
	str	r3, [sp]
	ldr	r3, [r6, #4]
	ldr	r2, [r5, #20]
	ldr	r1, [r1, #8]
	bl	NAND_Print_DBG
.L813:
	movs	r3, #0
	mov	r0, r5
	str	r3, [r5, #176]
	bl	samsung_set_readretry
.L806:
	mov	r0, r4
	add	sp, sp, #12
	@ sp needed
	pop	{r4, r5, r6, r7, r8, r10, pc}
.L809:
	str	r7, [r5, #176]
	b	.L810
.L811:
	adds	r7, r7, #1
	b	.L808
.L819:
	.align	2
.L818:
	.word	g_nsi
	.word	.LC102
	.word	.LC103
	.word	.LANCHOR81
	.word	-1013653780
	.size	samsung_read_page_end, .-samsung_read_page_end
	.section	.text.samsung_special_init,"ax",%progbits
	.align	1
	.global	samsung_special_init
	.syntax unified
	.thumb
	.thumb_func
	.fpu softvfp
	.type	samsung_special_init, %function
samsung_special_init:
	@ args = 0, pretend = 0, frame = 0
	@ frame_needed = 0, uses_anonymous_args = 0
	push	{r3, r4, r5, lr}
	movs	r4, #0
	ldr	r3, .L825
	ldr	r3, [r3]
	ldr	r5, [r3, #8]
.L821:
	cbnz	r5, .L822
	ldr	r3, .L825+4
	ldrb	r1, [r3]	@ zero_extendqisi2
	ldr	r3, .L825+8
	ldrb	r2, [r3]	@ zero_extendqisi2
	cbnz	r4, .L823
	ldr	r0, .L825+12
	ldr	r3, .L825+16
	str	r0, [r3]
	ldr	r0, .L825+20
	bl	NAND_Print_DBG
.L820:
	mov	r0, r4
	pop	{r3, r4, r5, pc}
.L822:
	mov	r0, r5
	bl	samsung_readretry_init
	ldr	r5, [r5]
	orrs	r4, r4, r0
	b	.L821
.L823:
	ldr	r0, .L825+24
	bl	NAND_Print
	b	.L820
.L826:
	.align	2
.L825:
	.word	g_nsi
	.word	.LANCHOR80
	.word	.LANCHOR81
	.word	samsung_read_page_end
	.word	df_read_page_end
	.word	.LC104
	.word	.LC105
	.size	samsung_special_init, .-samsung_special_init
	.section	.text.samsung_special_exit,"ax",%progbits
	.align	1
	.global	samsung_special_exit
	.syntax unified
	.thumb
	.thumb_func
	.fpu softvfp
	.type	samsung_special_exit, %function
samsung_special_exit:
	@ args = 0, pretend = 0, frame = 0
	@ frame_needed = 0, uses_anonymous_args = 0
	ldr	r3, .L830
	push	{r4, lr}
	ldr	r3, [r3]
	ldr	r4, [r3, #8]
.L828:
	cbnz	r4, .L829
	ldr	r0, .L830+4
	bl	NAND_Print_DBG
	mov	r0, r4
	pop	{r4, pc}
.L829:
	ldr	r4, [r4]
	b	.L828
.L831:
	.align	2
.L830:
	.word	g_nsi
	.word	.LC106
	.size	samsung_special_exit, .-samsung_special_exit
	.section	.text.generic_special_init,"ax",%progbits
	.align	1
	.global	generic_special_init
	.syntax unified
	.thumb
	.thumb_func
	.fpu softvfp
	.type	generic_special_init, %function
generic_special_init:
	@ args = 0, pretend = 0, frame = 0
	@ frame_needed = 0, uses_anonymous_args = 0
	push	{r3, lr}
	ldr	r2, .L833
	ldr	r3, .L833+4
	ldr	r0, .L833+8
	str	r2, [r3]
	bl	NAND_Print_DBG
	movs	r0, #0
	pop	{r3, pc}
.L834:
	.align	2
.L833:
	.word	generic_read_page_end_not_retry
	.word	df_read_page_end
	.word	.LC107
	.size	generic_special_init, .-generic_special_init
	.section	.text.generic_special_exit,"ax",%progbits
	.align	1
	.global	generic_special_exit
	.syntax unified
	.thumb
	.thumb_func
	.fpu softvfp
	.type	generic_special_exit, %function
generic_special_exit:
	@ args = 0, pretend = 0, frame = 0
	@ frame_needed = 0, uses_anonymous_args = 0
	push	{r3, lr}
	ldr	r0, .L836
	bl	NAND_Print_DBG
	movs	r0, #0
	pop	{r3, pc}
.L837:
	.align	2
.L836:
	.word	.LC108
	.size	generic_special_exit, .-generic_special_exit
	.section	.text.is_on_panic,"ax",%progbits
	.align	1
	.global	is_on_panic
	.syntax unified
	.thumb
	.thumb_func
	.fpu softvfp
	.type	is_on_panic, %function
is_on_panic:
	@ args = 0, pretend = 0, frame = 0
	@ frame_needed = 0, uses_anonymous_args = 0
	@ link register save eliminated.
	ldr	r3, .L839
	ldr	r0, [r3]
	adds	r0, r0, #0
	it	ne
	movne	r0, #1
	bx	lr
.L840:
	.align	2
.L839:
	.word	.LANCHOR85
	.size	is_on_panic, .-is_on_panic
	.section	.text.panic_mark_enable,"ax",%progbits
	.align	1
	.global	panic_mark_enable
	.syntax unified
	.thumb
	.thumb_func
	.fpu softvfp
	.type	panic_mark_enable, %function
panic_mark_enable:
	@ args = 0, pretend = 0, frame = 0
	@ frame_needed = 0, uses_anonymous_args = 0
	@ link register save eliminated.
	ldr	r3, .L842
	movs	r2, #1
	str	r2, [r3]
	bx	lr
.L843:
	.align	2
.L842:
	.word	.LANCHOR86
	.size	panic_mark_enable, .-panic_mark_enable
	.section	.text.is_panic_enable,"ax",%progbits
	.align	1
	.global	is_panic_enable
	.syntax unified
	.thumb
	.thumb_func
	.fpu softvfp
	.type	is_panic_enable, %function
is_panic_enable:
	@ args = 0, pretend = 0, frame = 0
	@ frame_needed = 0, uses_anonymous_args = 0
	@ link register save eliminated.
	ldr	r3, .L845
	ldr	r0, [r3]
	adds	r0, r0, #0
	it	ne
	movne	r0, #1
	bx	lr
.L846:
	.align	2
.L845:
	.word	.LANCHOR86
	.size	is_panic_enable, .-is_panic_enable
	.section	.text.panic_init_part,"ax",%progbits
	.align	1
	.global	panic_init_part
	.syntax unified
	.thumb
	.thumb_func
	.fpu softvfp
	.type	panic_init_part, %function
panic_init_part:
	@ args = 0, pretend = 0, frame = 0
	@ frame_needed = 0, uses_anonymous_args = 0
	push	{r3, r4, r5, lr}
	mov	r3, r2
	cbz	r0, .L851
	cbz	r2, .L851
	ldr	r5, .L852
	ldr	r4, [r5, #8]
	cbnz	r4, .L851
	str	r2, [r5, #8]
	ldr	r2, .L852+4
	strd	r0, r1, [r5]
	movs	r5, #1
	str	r5, [r2]
	mov	r2, r1
	mov	r1, r0
	ldr	r0, .L852+8
	bl	NAND_Print
	mov	r0, r4
.L847:
	pop	{r3, r4, r5, pc}
.L851:
	mov	r0, #-1
	b	.L847
.L853:
	.align	2
.L852:
	.word	.LANCHOR87
	.word	.LANCHOR86
	.word	.LC109
	.size	panic_init_part, .-panic_init_part
	.section	.text.panic_read,"ax",%progbits
	.align	1
	.global	panic_read
	.syntax unified
	.thumb
	.thumb_func
	.fpu softvfp
	.type	panic_read, %function
panic_read:
	@ args = 0, pretend = 0, frame = 0
	@ frame_needed = 0, uses_anonymous_args = 0
	push	{r4, r5, r6, r7, r8, r10, fp, lr}
	mov	r8, r3
	ldr	r3, .L860
	mov	r6, r0
	mov	r5, r2
	ldr	r3, [r3]
	cbz	r3, .L858
	ldr	r3, .L860+4
	movs	r2, #1
	mov	r4, r1
	sub	fp, r8, r1
	str	r2, [r3]
	bic	r3, r5, #32640
	bic	r3, r3, #127
	add	r10, r3, r1
.L856:
	cmp	r4, r10
	add	r3, fp, r4
	bne	.L857
	ubfx	r2, r5, #0, #15
	bic	r5, r5, #32640
	bic	r5, r5, #127
	add	r3, r8, r5
	cbz	r2, .L859
	ldr	r5, [r6, #44]
	mov	r1, r4
	mov	r0, r6
	blx	r5
	movs	r0, #0
.L854:
	pop	{r4, r5, r6, r7, r8, r10, fp, pc}
.L857:
	mov	r1, r4
	ldr	r7, [r6, #44]
	mov	r2, #32768
	mov	r0, r6
	blx	r7
	add	r4, r4, #32768
	b	.L856
.L858:
	mov	r0, #-1
	b	.L854
.L859:
	mov	r0, r2
	b	.L854
.L861:
	.align	2
.L860:
	.word	.LANCHOR86
	.word	.LANCHOR85
	.size	panic_read, .-panic_read
	.section	.text.is_panic_data_page,"ax",%progbits
	.align	1
	.global	is_panic_data_page
	.syntax unified
	.thumb
	.thumb_func
	.fpu softvfp
	.type	is_panic_data_page, %function
is_panic_data_page:
	@ args = 0, pretend = 0, frame = 0
	@ frame_needed = 0, uses_anonymous_args = 0
	@ link register save eliminated.
	ldrb	r3, [r0, #1]	@ zero_extendqisi2
	cmp	r3, #170
	bne	.L864
	ldrb	r0, [r0, #2]	@ zero_extendqisi2
	sub	r3, r0, #99
	rsbs	r0, r3, #0
	adcs	r0, r0, r3
	bx	lr
.L864:
	movs	r0, #0
	bx	lr
	.size	is_panic_data_page, .-is_panic_data_page
	.section	.text.is_panic_dummy_page,"ax",%progbits
	.align	1
	.global	is_panic_dummy_page
	.syntax unified
	.thumb
	.thumb_func
	.fpu softvfp
	.type	is_panic_dummy_page, %function
is_panic_dummy_page:
	@ args = 0, pretend = 0, frame = 0
	@ frame_needed = 0, uses_anonymous_args = 0
	@ link register save eliminated.
	ldrb	r3, [r0, #1]	@ zero_extendqisi2
	cmp	r3, #170
	bne	.L867
	ldrb	r0, [r0, #2]	@ zero_extendqisi2
	sub	r3, r0, #98
	rsbs	r0, r3, #0
	adcs	r0, r0, r3
	bx	lr
.L867:
	movs	r0, #0
	bx	lr
	.size	is_panic_dummy_page, .-is_panic_dummy_page
	.section	.text.panic_recover_info,"ax",%progbits
	.align	1
	.global	panic_recover_info
	.syntax unified
	.thumb
	.thumb_func
	.fpu softvfp
	.type	panic_recover_info, %function
panic_recover_info:
	@ args = 0, pretend = 0, frame = 0
	@ frame_needed = 0, uses_anonymous_args = 0
	push	{r3, r4, r5, lr}
	mov	r5, r1
	ldrb	r4, [r0, #4]	@ zero_extendqisi2
	cmp	r4, #2
	bhi	.L869
	ldrh	r1, [r1]
	ldr	r0, .L871
	bl	NAND_Print
	ldr	r3, .L871+4
	movs	r0, #0
	str	r5, [r3, r4, lsl #2]
.L868:
	pop	{r3, r4, r5, pc}
.L869:
	mov	r1, r4
	ldr	r0, .L871+8
	bl	NAND_Print
	mov	r0, #-1
	b	.L868
.L872:
	.align	2
.L871:
	.word	.LC110
	.word	.LANCHOR88
	.word	.LC111
	.size	panic_recover_info, .-panic_recover_info
	.section	.text.add_free_list,"ax",%progbits
	.align	1
	.global	add_free_list
	.syntax unified
	.thumb
	.thumb_func
	.fpu softvfp
	.type	add_free_list, %function
add_free_list:
	@ args = 0, pretend = 0, frame = 0
	@ frame_needed = 0, uses_anonymous_args = 0
	adds	r0, r0, #152
	push	{r4, lr}
.L874:
	ldr	r3, [r0, #20]
	cbnz	r3, .L876
	str	r1, [r0, #20]
	str	r3, [r1, #20]
	b	.L878
.L876:
	ldrh	r2, [r3, #6]
	ldrh	r4, [r1, #6]
	cmp	r4, r2
	bhi	.L877
	str	r1, [r3, #24]
	str	r3, [r1, #20]
	str	r1, [r0, #20]
.L878:
	str	r0, [r1, #24]
	movs	r0, #0
	pop	{r4, pc}
.L877:
	mov	r0, r3
	b	.L874
	.size	add_free_list, .-add_free_list
	.section	.text.del_free_list,"ax",%progbits
	.align	1
	.global	del_free_list
	.syntax unified
	.thumb
	.thumb_func
	.fpu softvfp
	.type	del_free_list, %function
del_free_list:
	@ args = 0, pretend = 0, frame = 0
	@ frame_needed = 0, uses_anonymous_args = 0
	@ link register save eliminated.
	mov	r3, r0
	ldr	r0, [r0, #172]
	cbz	r0, .L879
	ldr	r2, [r0, #20]
	str	r2, [r3, #172]
	ldr	r2, [r0, #20]
	str	r2, [r3, #172]
	ldr	r2, [r0, #20]
	cbz	r2, .L879
	adds	r3, r3, #152
	str	r3, [r2, #24]
.L879:
	bx	lr
	.size	del_free_list, .-del_free_list
	.section	.text.del_free_list_by_block,"ax",%progbits
	.align	1
	.global	del_free_list_by_block
	.syntax unified
	.thumb
	.thumb_func
	.fpu softvfp
	.type	del_free_list_by_block, %function
del_free_list_by_block:
	@ args = 0, pretend = 0, frame = 0
	@ frame_needed = 0, uses_anonymous_args = 0
	@ link register save eliminated.
	ldr	r0, [r0, #172]
.L887:
	cbnz	r0, .L890
	bx	lr
.L890:
	cmp	r0, r1
	ldr	r3, [r0, #20]
	bne	.L891
	ldr	r2, [r0, #24]
	str	r3, [r2, #20]
	ldr	r3, [r0, #20]
	cbz	r3, .L888
	str	r2, [r3, #24]
.L888:
	movs	r3, #0
	strd	r3, r3, [r0, #20]
	bx	lr
.L891:
	mov	r0, r3
	b	.L887
	.size	del_free_list_by_block, .-del_free_list_by_block
	.section	.text.is_block_in_free_list,"ax",%progbits
	.align	1
	.global	is_block_in_free_list
	.syntax unified
	.thumb
	.thumb_func
	.fpu softvfp
	.type	is_block_in_free_list, %function
is_block_in_free_list:
	@ args = 0, pretend = 0, frame = 0
	@ frame_needed = 0, uses_anonymous_args = 0
	@ link register save eliminated.
	ldr	r0, [r0, #172]
.L896:
	cbnz	r0, .L898
	bx	lr
.L898:
	cmp	r0, r1
	beq	.L899
	ldr	r0, [r0, #20]
	b	.L896
.L899:
	movs	r0, #1
	bx	lr
	.size	is_block_in_free_list, .-is_block_in_free_list
	.section	.text.print_free_list,"ax",%progbits
	.align	1
	.global	print_free_list
	.syntax unified
	.thumb
	.thumb_func
	.fpu softvfp
	.type	print_free_list, %function
print_free_list:
	@ args = 0, pretend = 0, frame = 0
	@ frame_needed = 0, uses_anonymous_args = 0
	ldr	r3, [r0, #356]
	push	{r4, r5, r6, lr}
	mov	r4, r0
	cbz	r3, .L900
	ldr	r0, .L905
	bl	NAND_Print_DBG
	ldr	r5, .L905+4
	ldr	r4, [r4, #172]
	ldr	r6, .L905+8
.L902:
	cbnz	r4, .L903
.L900:
	pop	{r4, r5, r6, pc}
.L903:
	ldrh	r2, [r4, #6]
	mov	r0, r5
	ldrh	r1, [r4]
	bl	NAND_Print_DBG
	ldr	r1, [r4, #8]
	mov	r0, r6
	bl	NAND_Print_DBG
	ldrh	r1, [r4, #2]
	ldr	r0, .L905+12
	bl	NAND_Print_DBG
	ldr	r4, [r4, #20]
	b	.L902
.L906:
	.align	2
.L905:
	.word	.LC112
	.word	.LC113
	.word	.LC114
	.word	.LC115
	.size	print_free_list, .-print_free_list
	.section	.text.add_block_invalid_list,"ax",%progbits
	.align	1
	.global	add_block_invalid_list
	.syntax unified
	.thumb
	.thumb_func
	.fpu softvfp
	.type	add_block_invalid_list, %function
add_block_invalid_list:
	@ args = 0, pretend = 0, frame = 0
	@ frame_needed = 0, uses_anonymous_args = 0
	adds	r0, r0, #188
	push	{r4, lr}
.L908:
	ldr	r3, [r0, #12]
	cbnz	r3, .L910
	str	r1, [r0, #12]
	str	r3, [r1, #12]
	b	.L912
.L910:
	ldrh	r2, [r3, #4]
	ldrh	r4, [r1, #4]
	cmp	r4, r2
	bcc	.L911
	str	r1, [r3, #16]
	str	r3, [r1, #12]
	str	r1, [r0, #12]
.L912:
	str	r0, [r1, #16]
	movs	r0, #0
	pop	{r4, pc}
.L911:
	mov	r0, r3
	b	.L908
	.size	add_block_invalid_list, .-add_block_invalid_list
	.section	.text.del_block_invalid_list,"ax",%progbits
	.align	1
	.global	del_block_invalid_list
	.syntax unified
	.thumb
	.thumb_func
	.fpu softvfp
	.type	del_block_invalid_list, %function
del_block_invalid_list:
	@ args = 0, pretend = 0, frame = 0
	@ frame_needed = 0, uses_anonymous_args = 0
	@ link register save eliminated.
	mov	r3, r0
	ldr	r0, [r0, #200]
	cbz	r0, .L913
	ldr	r2, [r0, #12]
	str	r2, [r3, #200]
	ldr	r2, [r0, #12]
	cbz	r2, .L913
	adds	r3, r3, #188
	str	r3, [r2, #16]
.L913:
	bx	lr
	.size	del_block_invalid_list, .-del_block_invalid_list
	.section	.text.del_block_invalid_list_by_block,"ax",%progbits
	.align	1
	.global	del_block_invalid_list_by_block
	.syntax unified
	.thumb
	.thumb_func
	.fpu softvfp
	.type	del_block_invalid_list_by_block, %function
del_block_invalid_list_by_block:
	@ args = 0, pretend = 0, frame = 0
	@ frame_needed = 0, uses_anonymous_args = 0
	@ link register save eliminated.
	ldr	r0, [r0, #200]
.L921:
	cbnz	r0, .L924
	bx	lr
.L924:
	cmp	r0, r1
	ldr	r3, [r0, #12]
	bne	.L925
	ldr	r2, [r0, #16]
	str	r3, [r2, #12]
	ldr	r3, [r0, #12]
	cbz	r3, .L922
	str	r2, [r3, #16]
.L922:
	movs	r3, #0
	strd	r3, r3, [r0, #12]
	bx	lr
.L925:
	mov	r0, r3
	b	.L921
	.size	del_block_invalid_list_by_block, .-del_block_invalid_list_by_block
	.section	.text.is_block_in_invalid_list,"ax",%progbits
	.align	1
	.global	is_block_in_invalid_list
	.syntax unified
	.thumb
	.thumb_func
	.fpu softvfp
	.type	is_block_in_invalid_list, %function
is_block_in_invalid_list:
	@ args = 0, pretend = 0, frame = 0
	@ frame_needed = 0, uses_anonymous_args = 0
	@ link register save eliminated.
	ldr	r0, [r0, #200]
.L930:
	cbnz	r0, .L932
	bx	lr
.L932:
	cmp	r0, r1
	beq	.L933
	ldr	r0, [r0, #12]
	b	.L930
.L933:
	movs	r0, #1
	bx	lr
	.size	is_block_in_invalid_list, .-is_block_in_invalid_list
	.section	.text.print_block_invalid_list,"ax",%progbits
	.align	1
	.global	print_block_invalid_list
	.syntax unified
	.thumb
	.thumb_func
	.fpu softvfp
	.type	print_block_invalid_list, %function
print_block_invalid_list:
	@ args = 0, pretend = 0, frame = 0
	@ frame_needed = 0, uses_anonymous_args = 0
	ldr	r3, [r0, #356]
	push	{r4, r5, r6, lr}
	mov	r4, r0
	cbz	r3, .L934
	ldr	r0, .L939
	bl	NAND_Print_DBG
	ldr	r5, .L939+4
	ldr	r4, [r4, #200]
	ldr	r6, .L939+8
.L936:
	cbnz	r4, .L937
.L934:
	pop	{r4, r5, r6, pc}
.L937:
	ldrh	r2, [r4, #6]
	mov	r0, r5
	ldrh	r1, [r4]
	bl	NAND_Print_DBG
	ldrh	r2, [r4, #4]
	mov	r0, r6
	ldr	r1, [r4, #8]
	bl	NAND_Print_DBG
	ldrh	r1, [r4, #2]
	ldr	r0, .L939+12
	bl	NAND_Print_DBG
	ldr	r4, [r4, #12]
	b	.L936
.L940:
	.align	2
.L939:
	.word	.LC116
	.word	.LC113
	.word	.LC117
	.word	.LC115
	.size	print_block_invalid_list, .-print_block_invalid_list
	.section	.text.add_block_count_list,"ax",%progbits
	.align	1
	.global	add_block_count_list
	.syntax unified
	.thumb
	.thumb_func
	.fpu softvfp
	.type	add_block_count_list, %function
add_block_count_list:
	@ args = 0, pretend = 0, frame = 0
	@ frame_needed = 0, uses_anonymous_args = 0
	adds	r0, r0, #224
	push	{r4, lr}
.L942:
	ldr	r3, [r0, #28]
	cbnz	r3, .L944
	str	r1, [r0, #28]
	str	r3, [r1, #28]
	b	.L946
.L944:
	ldr	r4, [r3, #8]
	ldr	r2, [r1, #8]
	cmp	r4, r2
	blt	.L945
	str	r1, [r3, #32]
	str	r3, [r1, #28]
	str	r1, [r0, #28]
.L946:
	str	r0, [r1, #32]
	movs	r0, #0
	pop	{r4, pc}
.L945:
	mov	r0, r3
	b	.L942
	.size	add_block_count_list, .-add_block_count_list
	.section	.text.del_block_count_list,"ax",%progbits
	.align	1
	.global	del_block_count_list
	.syntax unified
	.thumb
	.thumb_func
	.fpu softvfp
	.type	del_block_count_list, %function
del_block_count_list:
	@ args = 0, pretend = 0, frame = 0
	@ frame_needed = 0, uses_anonymous_args = 0
	@ link register save eliminated.
	mov	r3, r0
	adds	r0, r0, #224
	ldr	r2, [r3, #252]
	cbz	r2, .L947
	ldr	r2, [r2, #28]
	str	r2, [r3, #252]
.L947:
	bx	lr
	.size	del_block_count_list, .-del_block_count_list
	.section	.text.del_block_count_by_block,"ax",%progbits
	.align	1
	.global	del_block_count_by_block
	.syntax unified
	.thumb
	.thumb_func
	.fpu softvfp
	.type	del_block_count_by_block, %function
del_block_count_by_block:
	@ args = 0, pretend = 0, frame = 0
	@ frame_needed = 0, uses_anonymous_args = 0
	@ link register save eliminated.
	ldr	r0, [r0, #252]
.L953:
	cbnz	r0, .L956
	bx	lr
.L956:
	cmp	r0, r1
	ldr	r3, [r0, #28]
	bne	.L957
	ldr	r2, [r0, #32]
	str	r3, [r2, #28]
	ldr	r3, [r0, #28]
	cbz	r3, .L954
	str	r2, [r3, #32]
.L954:
	movs	r3, #0
	strd	r3, r3, [r0, #28]
	bx	lr
.L957:
	mov	r0, r3
	b	.L953
	.size	del_block_count_by_block, .-del_block_count_by_block
	.section	.text.print_block_count_list,"ax",%progbits
	.align	1
	.global	print_block_count_list
	.syntax unified
	.thumb
	.thumb_func
	.fpu softvfp
	.type	print_block_count_list, %function
print_block_count_list:
	@ args = 0, pretend = 0, frame = 0
	@ frame_needed = 0, uses_anonymous_args = 0
	ldr	r3, [r0, #356]
	push	{r4, r5, r6, lr}
	mov	r4, r0
	cbz	r3, .L961
	ldr	r0, .L966
	bl	NAND_Print_DBG
	ldr	r5, .L966+4
	ldr	r4, [r4, #252]
	ldr	r6, .L966+8
.L963:
	cbnz	r4, .L964
.L961:
	pop	{r4, r5, r6, pc}
.L964:
	ldrh	r1, [r4]
	mov	r0, r5
	bl	NAND_Print_DBG
	ldr	r1, [r4, #8]
	mov	r0, r6
	bl	NAND_Print_DBG
	ldr	r4, [r4, #28]
	b	.L963
.L967:
	.align	2
.L966:
	.word	.LC118
	.word	.LC119
	.word	.LC120
	.size	print_block_count_list, .-print_block_count_list
	.section	.text.put_phy_block_to_free_list,"ax",%progbits
	.align	1
	.global	put_phy_block_to_free_list
	.syntax unified
	.thumb
	.thumb_func
	.fpu softvfp
	.type	put_phy_block_to_free_list, %function
put_phy_block_to_free_list:
	@ args = 0, pretend = 0, frame = 0
	@ frame_needed = 0, uses_anonymous_args = 0
	movs	r2, #0
	push	{r3, r4, r5, lr}
	strd	r2, r2, [r1, #20]
	mov	r5, r0
	bl	add_free_list
	mov	r4, r0
	cbnz	r0, .L969
	ldrh	r3, [r5, #22]
	adds	r3, r3, #1
	strh	r3, [r5, #22]	@ movhi
.L968:
	mov	r0, r4
	pop	{r3, r4, r5, pc}
.L969:
	ldr	r0, .L971
	bl	NAND_Print_DBG
	b	.L968
.L972:
	.align	2
.L971:
	.word	.LC121
	.size	put_phy_block_to_free_list, .-put_phy_block_to_free_list
	.section	.text.out_phy_block_from_free_list,"ax",%progbits
	.align	1
	.global	out_phy_block_from_free_list
	.syntax unified
	.thumb
	.thumb_func
	.fpu softvfp
	.type	out_phy_block_from_free_list, %function
out_phy_block_from_free_list:
	@ args = 0, pretend = 0, frame = 0
	@ frame_needed = 0, uses_anonymous_args = 0
	push	{r3, lr}
	mov	r1, r0
	bl	del_free_list
	cbz	r0, .L973
	movs	r3, #0
	strd	r3, r3, [r0, #20]
	ldrh	r3, [r1, #22]
	cbz	r3, .L973
	subs	r3, r3, #1
	strh	r3, [r1, #22]	@ movhi
.L973:
	pop	{r3, pc}
	.size	out_phy_block_from_free_list, .-out_phy_block_from_free_list
	.section	.text.panic_backup_block,"ax",%progbits
	.align	1
	.global	panic_backup_block
	.syntax unified
	.thumb
	.thumb_func
	.fpu softvfp
	.type	panic_backup_block, %function
panic_backup_block:
	@ args = 0, pretend = 0, frame = 0
	@ frame_needed = 0, uses_anonymous_args = 0
	ldr	r3, .L991
	push	{r4, r5, r6, r7, r8, r10, fp, lr}
	mov	r8, r0
	ldr	r0, [r3]
	cbz	r0, .L980
	ldr	r6, .L991+4
	movs	r5, #0
	ldr	fp, .L991+16
.L984:
	ldr	r4, [r6, r5, lsl #2]
	lsl	r10, r5, #2
	cbz	r4, .L982
	ldrh	r1, [r4]
	ldr	r0, .L991+8
	bl	NAND_Print
	movs	r0, #0
.L980:
	pop	{r4, r5, r6, r7, r8, r10, fp, pc}
.L982:
	mov	r0, r8
	bl	out_phy_block_from_free_list
	mov	r7, r0
	cbz	r0, .L983
	ldrh	r1, [r0]
	adds	r5, r5, #1
	mov	r0, fp
	bl	NAND_Print
	cmp	r5, #3
	str	r7, [r10, r6]
	bne	.L984
	ldr	r3, [r8, #4]
	mov	r0, r4
	ldrh	r3, [r3, #20]
	add	r3, r3, r3, lsl #1
	str	r3, [r6, #12]
	b	.L980
.L983:
	ldr	r0, .L991+12
	bl	NAND_Print
	mov	r0, #-1
	b	.L980
.L992:
	.align	2
.L991:
	.word	.LANCHOR86
	.word	.LANCHOR88
	.word	.LC122
	.word	.LC124
	.word	.LC123
	.size	panic_backup_block, .-panic_backup_block
	.section	.text.get_max_erase_time_from_free_list,"ax",%progbits
	.align	1
	.global	get_max_erase_time_from_free_list
	.syntax unified
	.thumb
	.thumb_func
	.fpu softvfp
	.type	get_max_erase_time_from_free_list, %function
get_max_erase_time_from_free_list:
	@ args = 0, pretend = 0, frame = 0
	@ frame_needed = 0, uses_anonymous_args = 0
	ldr	r3, [r0, #172]
	movs	r0, #0
	mov	r2, r0
	push	{r4, lr}
.L994:
	cbnz	r3, .L996
	cbz	r2, .L998
	ldrh	r0, [r2, #6]
.L997:
	pop	{r4, pc}
.L996:
	ldrh	r4, [r3, #6]
	cmp	r4, r1
	bcs	.L995
	cmp	r4, r0
	itt	cs
	movcs	r0, r4
	movcs	r2, r3
.L995:
	ldr	r3, [r3, #20]
	b	.L994
.L998:
	movw	r0, #65535
	b	.L997
	.size	get_max_erase_time_from_free_list, .-get_max_erase_time_from_free_list
	.section	.text.get_block_max_erase_time_from_free_list,"ax",%progbits
	.align	1
	.global	get_block_max_erase_time_from_free_list
	.syntax unified
	.thumb
	.thumb_func
	.fpu softvfp
	.type	get_block_max_erase_time_from_free_list, %function
get_block_max_erase_time_from_free_list:
	@ args = 0, pretend = 0, frame = 0
	@ frame_needed = 0, uses_anonymous_args = 0
	movs	r2, #0
	ldr	r3, [r0, #172]
	mov	r0, r2
	push	{r4, lr}
.L1000:
	cbnz	r3, .L1002
	pop	{r4, pc}
.L1002:
	ldrh	r4, [r3, #6]
	cmp	r4, r1
	bcs	.L1001
	cmp	r4, r2
	itt	cs
	movcs	r2, r4
	movcs	r0, r3
.L1001:
	ldr	r3, [r3, #20]
	b	.L1000
	.size	get_block_max_erase_time_from_free_list, .-get_block_max_erase_time_from_free_list
	.section	.text.get_block_max_erase_time_from_invalid_list,"ax",%progbits
	.align	1
	.global	get_block_max_erase_time_from_invalid_list
	.syntax unified
	.thumb
	.thumb_func
	.fpu softvfp
	.type	get_block_max_erase_time_from_invalid_list, %function
get_block_max_erase_time_from_invalid_list:
	@ args = 0, pretend = 0, frame = 0
	@ frame_needed = 0, uses_anonymous_args = 0
	movs	r2, #0
	ldr	r3, [r0, #200]
	mov	r0, r2
	push	{r4, lr}
.L1004:
	cbnz	r3, .L1006
	pop	{r4, pc}
.L1006:
	ldrh	r4, [r3, #6]
	cmp	r4, r1
	bcs	.L1005
	cmp	r4, r2
	itt	cs
	movcs	r2, r4
	movcs	r0, r3
.L1005:
	ldr	r3, [r3, #12]
	b	.L1004
	.size	get_block_max_erase_time_from_invalid_list, .-get_block_max_erase_time_from_invalid_list
	.section	.text.get_block_min_erase_time_from_invalid_list,"ax",%progbits
	.align	1
	.global	get_block_min_erase_time_from_invalid_list
	.syntax unified
	.thumb
	.thumb_func
	.fpu softvfp
	.type	get_block_min_erase_time_from_invalid_list, %function
get_block_min_erase_time_from_invalid_list:
	@ args = 0, pretend = 0, frame = 0
	@ frame_needed = 0, uses_anonymous_args = 0
	ldr	r3, [r0, #4]
	push	{r4, r5, r6, lr}
	ldrh	r5, [r3, #16]
	ldr	r3, [r0, #200]
	movs	r0, #0
.L1008:
	cbnz	r3, .L1010
	pop	{r4, r5, r6, pc}
.L1010:
	ldrh	r4, [r3, #6]
	cmp	r4, r1
	bcs	.L1009
	ldr	r6, [r3, #8]
	cmp	r6, r2
	bcs	.L1009
	cmp	r4, r5
	itt	ls
	movls	r5, r4
	movls	r0, r3
.L1009:
	ldr	r3, [r3, #12]
	b	.L1008
	.size	get_block_min_erase_time_from_invalid_list, .-get_block_min_erase_time_from_invalid_list
	.section	.text.get_block_max_count_from_invalid_list,"ax",%progbits
	.align	1
	.global	get_block_max_count_from_invalid_list
	.syntax unified
	.thumb
	.thumb_func
	.fpu softvfp
	.type	get_block_max_count_from_invalid_list, %function
get_block_max_count_from_invalid_list:
	@ args = 0, pretend = 0, frame = 0
	@ frame_needed = 0, uses_anonymous_args = 0
	@ link register save eliminated.
	movs	r2, #0
	ldr	r3, [r0, #200]
	mov	r0, r2
.L1012:
	cbnz	r3, .L1014
	bx	lr
.L1014:
	ldr	r1, [r3, #8]
	cmp	r1, r2
	itt	cs
	movcs	r0, r3
	movcs	r2, r1
	ldr	r3, [r3, #12]
	b	.L1012
	.size	get_block_max_count_from_invalid_list, .-get_block_max_count_from_invalid_list
	.section	.text.get_block_min_count_from_invalid_list,"ax",%progbits
	.align	1
	.global	get_block_min_count_from_invalid_list
	.syntax unified
	.thumb
	.thumb_func
	.fpu softvfp
	.type	get_block_min_count_from_invalid_list, %function
get_block_min_count_from_invalid_list:
	@ args = 0, pretend = 0, frame = 0
	@ frame_needed = 0, uses_anonymous_args = 0
	@ link register save eliminated.
	ldr	r3, [r0, #200]
	mov	r2, #-1
	movs	r0, #0
.L1016:
	cbnz	r3, .L1018
	bx	lr
.L1018:
	ldr	r1, [r3, #8]
	cmp	r1, r2
	itt	ls
	movls	r0, r3
	movls	r2, r1
	ldr	r3, [r3, #12]
	b	.L1016
	.size	get_block_min_count_from_invalid_list, .-get_block_min_count_from_invalid_list
	.section	.text.out_phy_block_from_free_list_by_block,"ax",%progbits
	.align	1
	.global	out_phy_block_from_free_list_by_block
	.syntax unified
	.thumb
	.thumb_func
	.fpu softvfp
	.type	out_phy_block_from_free_list_by_block, %function
out_phy_block_from_free_list_by_block:
	@ args = 0, pretend = 0, frame = 0
	@ frame_needed = 0, uses_anonymous_args = 0
	push	{r4, lr}
	mov	r4, r0
	bl	del_free_list_by_block
	cbz	r0, .L1019
	movs	r3, #0
	strd	r3, r3, [r0, #20]
	ldrh	r3, [r4, #22]
	cbz	r3, .L1019
	subs	r3, r3, #1
	strh	r3, [r4, #22]	@ movhi
.L1019:
	pop	{r4, pc}
	.size	out_phy_block_from_free_list_by_block, .-out_phy_block_from_free_list_by_block
	.section	.text.out_phy_block_from_free_list_by_erase_time,"ax",%progbits
	.align	1
	.global	out_phy_block_from_free_list_by_erase_time
	.syntax unified
	.thumb
	.thumb_func
	.fpu softvfp
	.type	out_phy_block_from_free_list_by_erase_time, %function
out_phy_block_from_free_list_by_erase_time:
	@ args = 0, pretend = 0, frame = 0
	@ frame_needed = 0, uses_anonymous_args = 0
	@ link register save eliminated.
	ldr	r3, [r0, #172]
	push	{r4, r5}
	movs	r4, #0
	mov	r2, r4
.L1027:
	cbnz	r3, .L1029
	cbz	r2, .L1026
	mov	r1, r2
	pop	{r4, r5}
	b	out_phy_block_from_free_list_by_block
.L1029:
	ldrh	r5, [r3, #6]
	cmp	r5, r1
	bcs	.L1028
	cmp	r5, r4
	itt	cs
	movcs	r4, r5
	movcs	r2, r3
.L1028:
	ldr	r3, [r3, #20]
	b	.L1027
.L1026:
	mov	r0, r2
	pop	{r4, r5}
	bx	lr
	.size	out_phy_block_from_free_list_by_erase_time, .-out_phy_block_from_free_list_by_erase_time
	.section	.text.put_phy_block_to_invalid_page_list,"ax",%progbits
	.align	1
	.global	put_phy_block_to_invalid_page_list
	.syntax unified
	.thumb
	.thumb_func
	.fpu softvfp
	.type	put_phy_block_to_invalid_page_list, %function
put_phy_block_to_invalid_page_list:
	@ args = 0, pretend = 0, frame = 0
	@ frame_needed = 0, uses_anonymous_args = 0
	movs	r2, #0
	push	{r4, lr}
	strd	r2, r2, [r1, #12]
	bl	add_block_invalid_list
	mov	r4, r0
	cbz	r0, .L1031
	ldr	r0, .L1036
	bl	NAND_Print_DBG
.L1031:
	mov	r0, r4
	pop	{r4, pc}
.L1037:
	.align	2
.L1036:
	.word	.LC125
	.size	put_phy_block_to_invalid_page_list, .-put_phy_block_to_invalid_page_list
	.section	.text.out_phy_block_from_invalid_page_list,"ax",%progbits
	.align	1
	.global	out_phy_block_from_invalid_page_list
	.syntax unified
	.thumb
	.thumb_func
	.fpu softvfp
	.type	out_phy_block_from_invalid_page_list, %function
out_phy_block_from_invalid_page_list:
	@ args = 0, pretend = 0, frame = 0
	@ frame_needed = 0, uses_anonymous_args = 0
	push	{r3, lr}
	bl	del_block_invalid_list
	cbz	r0, .L1038
	movs	r3, #0
	strd	r3, r3, [r0, #12]
.L1038:
	pop	{r3, pc}
	.size	out_phy_block_from_invalid_page_list, .-out_phy_block_from_invalid_page_list
	.section	.text.out_phy_block_from_invalid_page_list_by_block,"ax",%progbits
	.align	1
	.global	out_phy_block_from_invalid_page_list_by_block
	.syntax unified
	.thumb
	.thumb_func
	.fpu softvfp
	.type	out_phy_block_from_invalid_page_list_by_block, %function
out_phy_block_from_invalid_page_list_by_block:
	@ args = 0, pretend = 0, frame = 0
	@ frame_needed = 0, uses_anonymous_args = 0
	push	{r3, lr}
	bl	del_block_invalid_list_by_block
	cbz	r0, .L1043
	movs	r3, #0
	strd	r3, r3, [r0, #12]
.L1043:
	pop	{r3, pc}
	.size	out_phy_block_from_invalid_page_list_by_block, .-out_phy_block_from_invalid_page_list_by_block
	.section	.text.out_phy_block_from_used_list_by_block,"ax",%progbits
	.align	1
	.global	out_phy_block_from_used_list_by_block
	.syntax unified
	.thumb
	.thumb_func
	.fpu softvfp
	.type	out_phy_block_from_used_list_by_block, %function
out_phy_block_from_used_list_by_block:
	@ args = 0, pretend = 0, frame = 0
	@ frame_needed = 0, uses_anonymous_args = 0
	@ link register save eliminated.
	b	del_block_count_by_block
	.size	out_phy_block_from_used_list_by_block, .-out_phy_block_from_used_list_by_block
	.section	.text.phy_block_from_invalid_page_incr,"ax",%progbits
	.align	1
	.global	phy_block_from_invalid_page_incr
	.syntax unified
	.thumb
	.thumb_func
	.fpu softvfp
	.type	phy_block_from_invalid_page_incr, %function
phy_block_from_invalid_page_incr:
	@ args = 0, pretend = 0, frame = 0
	@ frame_needed = 0, uses_anonymous_args = 0
	push	{r3, r4, r5, lr}
	mov	r4, r1
	ldrh	r2, [r1, #4]
	mov	r5, r0
	ldr	r1, [r1, #12]
	ldr	r3, [r0, #4]
	adds	r2, r2, #1
	uxth	r2, r2
	ldrh	r3, [r3, #20]
	cbnz	r1, .L1050
	ldr	r1, [r4, #16]
	cbnz	r1, .L1050
	cmp	r2, r3
	strh	r2, [r4, #4]	@ movhi
	bls	.L1052
	ldrh	r1, [r4]
	ldr	r0, .L1064
	bl	NAND_Print_DBG
.L1052:
	movs	r0, #0
	pop	{r3, r4, r5, pc}
.L1050:
	cmp	r2, r3
	strh	r2, [r4, #4]	@ movhi
	bls	.L1053
	ldr	r0, .L1064+4
	bl	NAND_Print_DBG
.L1053:
	ldr	r3, [r4, #16]
	adds	r5, r5, #188
	cmp	r3, r5
	beq	.L1052
	ldrh	r1, [r4, #4]
.L1055:
	ldrh	r2, [r3, #4]
	cmp	r2, r1
	bcs	.L1052
	ldr	r2, [r3, #16]
	str	r2, [r4, #16]
	ldr	r2, [r3, #16]
	str	r4, [r2, #12]
	ldr	r2, [r4, #12]
	str	r2, [r3, #12]
	ldr	r2, [r4, #12]
	cbz	r2, .L1056
	str	r3, [r2, #16]
.L1056:
	str	r3, [r4, #12]
	str	r4, [r3, #16]
	ldr	r3, [r4, #16]
	ldr	r2, [r3, #16]
	cmp	r2, #0
	bne	.L1055
	b	.L1052
.L1065:
	.align	2
.L1064:
	.word	.LC126
	.word	.LC127
	.size	phy_block_from_invalid_page_incr, .-phy_block_from_invalid_page_incr
	.section	.text.adjust_invaild_list,"ax",%progbits
	.align	1
	.global	adjust_invaild_list
	.syntax unified
	.thumb
	.thumb_func
	.fpu softvfp
	.type	adjust_invaild_list, %function
adjust_invaild_list:
	@ args = 0, pretend = 0, frame = 0
	@ frame_needed = 0, uses_anonymous_args = 0
	push	{r3, r4, r5, lr}
	mov	r4, r0
.L1067:
	ldr	r3, [r4, #200]
	cbnz	r3, .L1069
.L1068:
	movs	r0, #0
	pop	{r3, r4, r5, pc}
.L1069:
	ldr	r1, [r4, #4]
	ldrh	r2, [r3, #4]
	ldrh	r3, [r1, #20]
	cmp	r2, r3
	bne	.L1068
	mov	r0, r4
	bl	out_phy_block_from_invalid_page_list
	mov	r5, r0
	mov	r1, r0
	mov	r0, r4
	bl	put_phy_block_to_free_list
	mov	r1, r5
	mov	r0, r4
	bl	out_phy_block_from_used_list_by_block
	b	.L1067
	.size	adjust_invaild_list, .-adjust_invaild_list
	.section	.text.dump_buf,"ax",%progbits
	.align	1
	.global	dump_buf
	.syntax unified
	.thumb
	.thumb_func
	.fpu softvfp
	.type	dump_buf, %function
dump_buf:
	@ args = 0, pretend = 0, frame = 0
	@ frame_needed = 0, uses_anonymous_args = 0
	push	{r4, r5, r6, r7, r8, lr}
	movs	r4, #0
	ldr	r7, .L1075
	mov	r6, r0
	mov	r5, r1
	ldr	r8, .L1075+8
	ldr	r0, .L1075+4
	bl	NAND_Print
.L1071:
	cmp	r4, r5
	bne	.L1074
	ldr	r0, .L1075+4
	pop	{r4, r5, r6, r7, r8, lr}
	b	NAND_Print
.L1074:
	lsls	r2, r4, #28
	bne	.L1072
	mov	r1, r4
	mov	r0, r7
	bl	NAND_Print
.L1072:
	ldrb	r1, [r6, r4]	@ zero_extendqisi2
	mov	r0, r8
	adds	r4, r4, #1
	bl	NAND_Print
	lsls	r3, r4, #28
	bne	.L1071
	ldr	r0, .L1075+4
	bl	NAND_Print
	b	.L1071
.L1076:
	.align	2
.L1075:
	.word	.LC5
	.word	.LC7
	.word	.LC81
	.size	dump_buf, .-dump_buf
	.global	__aeabi_uidiv
	.section	.text.init_zone_after_first_scan,"ax",%progbits
	.align	1
	.global	init_zone_after_first_scan
	.syntax unified
	.thumb
	.thumb_func
	.fpu softvfp
	.type	init_zone_after_first_scan, %function
init_zone_after_first_scan:
	@ args = 0, pretend = 0, frame = 0
	@ frame_needed = 0, uses_anonymous_args = 0
	push	{r4, r5, r6, lr}
	mov	r5, r1
	ldr	r6, [r0, #4]
	mov	r4, r0
	ldr	r0, [r0, #24]
	ldrb	r1, [r6, #8]	@ zero_extendqisi2
	bl	__aeabi_uidiv
	ldrh	r1, [r6, #20]
	bl	__aeabi_uidiv
	mov	r1, r5
	mov	r6, r0
	mov	r2, r0
	ldr	r0, .L1084
	bl	NAND_Print_DBG
	cmp	r6, r5
	bcc	.L1078
	ldr	r0, .L1084+4
	mov	r2, r6
	mov	r1, r5
.L1083:
	bl	NAND_Print
	movs	r0, #1
.L1077:
	pop	{r4, r5, r6, pc}
.L1078:
	ldr	r1, [r4, #4]
	subs	r2, r5, r6
	ldrb	r0, [r1, #8]	@ zero_extendqisi2
	ldrh	r3, [r1, #20]
	muls	r3, r0, r3
	muls	r3, r2, r3
	str	r3, [r4, #32]
	ldr	r3, [r4, #1972]
	ldrh	r1, [r3, #12]
	subs	r1, r1, #1
	cmp	r2, r1
	bcs	.L1080
	mov	r2, r6
	mov	r1, r5
	ldr	r0, .L1084+8
	b	.L1083
.L1080:
	ldr	r0, .L1084+12
	umull	r0, r1, r2, r0
	ubfx	r0, r1, #2, #16
	ldrh	r1, [r3, #14]
	strh	r0, [r4, #380]	@ movhi
	cmp	r0, r1
	ldrh	r0, [r3, #18]
	it	cc
	strhcc	r1, [r4, #380]	@ movhi
	ldrh	r1, [r3, #20]
	muls	r0, r2, r0
	bl	__aeabi_uidiv
	ldrh	r3, [r4, #380]
	strh	r0, [r4, #382]	@ movhi
	uxth	r0, r0
	adds	r2, r3, #1
	cmp	r2, r0
	mov	r0, #0
	itt	ge
	addge	r3, r3, #2
	strhge	r3, [r4, #382]	@ movhi
	movs	r3, #1
	str	r3, [r4, #384]
	b	.L1077
.L1085:
	.align	2
.L1084:
	.word	.LC128
	.word	.LC129
	.word	.LC130
	.word	-858993459
	.size	init_zone_after_first_scan, .-init_zone_after_first_scan
	.section	.text.check_bit_nums,"ax",%progbits
	.align	1
	.global	check_bit_nums
	.syntax unified
	.thumb
	.thumb_func
	.fpu softvfp
	.type	check_bit_nums, %function
check_bit_nums:
	@ args = 0, pretend = 0, frame = 0
	@ frame_needed = 0, uses_anonymous_args = 0
	push	{r4, r5, r6, lr}
	movs	r2, #0
	mov	r4, r0
.L1087:
	subs	r3, r4, r0
	cmp	r3, r1
	blt	.L1090
	mov	r0, r2
	pop	{r4, r5, r6, pc}
.L1090:
	ldrb	r6, [r4], #1	@ zero_extendqisi2
	movs	r5, #8
	movs	r3, #1
.L1089:
	tst	r6, r3
	lsl	r3, r3, #1
	it	ne
	addne	r2, r2, #1
	subs	r5, r5, #1
	uxtb	r3, r3
	bne	.L1089
	b	.L1087
	.size	check_bit_nums, .-check_bit_nums
	.section	.text.is_all_bit_ff,"ax",%progbits
	.align	1
	.global	is_all_bit_ff
	.syntax unified
	.thumb
	.thumb_func
	.fpu softvfp
	.type	is_all_bit_ff, %function
is_all_bit_ff:
	@ args = 0, pretend = 0, frame = 0
	@ frame_needed = 0, uses_anonymous_args = 0
	push	{r4, lr}
	rsb	r4, r2, r1, lsl #3
	bl	check_bit_nums
	cmp	r4, r0
	ite	gt
	movgt	r0, #0
	movle	r0, #1
	pop	{r4, pc}
	.size	is_all_bit_ff, .-is_all_bit_ff
	.section	.text.is_all_byte_ff,"ax",%progbits
	.align	1
	.global	is_all_byte_ff
	.syntax unified
	.thumb
	.thumb_func
	.fpu softvfp
	.type	is_all_byte_ff, %function
is_all_byte_ff:
	@ args = 0, pretend = 0, frame = 0
	@ frame_needed = 0, uses_anonymous_args = 0
	push	{r4, r5, lr}
	subs	r2, r1, r2
	mov	r4, r0
	movs	r3, #0
.L1097:
	subs	r5, r4, r0
	cmp	r1, r5
	bgt	.L1099
	cmp	r3, r2
	ite	lt
	movlt	r0, #0
	movge	r0, #1
	pop	{r4, r5, pc}
.L1099:
	ldrb	r5, [r4], #1	@ zero_extendqisi2
	cmp	r5, #255
	it	eq
	addeq	r3, r3, #1
	b	.L1097
	.size	is_all_byte_ff, .-is_all_byte_ff
	.section	.text.do_write_error_in_build_list,"ax",%progbits
	.align	1
	.global	do_write_error_in_build_list
	.syntax unified
	.thumb
	.thumb_func
	.fpu softvfp
	.type	do_write_error_in_build_list, %function
do_write_error_in_build_list:
	@ args = 0, pretend = 0, frame = 16
	@ frame_needed = 0, uses_anonymous_args = 0
	push	{r4, r5, r6, r7, r8, r10, fp, lr}
	mov	r8, r3
	ldr	r3, [r0, #4]
	mov	r7, r2
	sub	sp, sp, #24
	movs	r5, #0
	ldrh	r2, [r2]
	mov	r10, r1
	ldrh	r3, [r3, #28]
	add	r1, sp, #8
	strh	r5, [sp, #8]	@ movhi
	mov	r4, r0
	strh	r2, [sp, #10]	@ movhi
	strh	r3, [sp, #12]	@ movhi
	strd	r5, r5, [sp, #16]
	ldr	r3, [r0, #1980]
	blx	r3
	ldrh	r3, [r7, #6]
	strh	r5, [r7, #4]	@ movhi
	adds	r3, r3, #1
	strh	r3, [r7, #6]	@ movhi
	cmp	r0, #0
	beq	.L1105
	ldr	r0, .L1110
	bl	NAND_Print
	ldr	r3, [r4, #2000]
	add	r1, sp, #8
	mov	r0, r4
	blx	r3
	movs	r0, #1
.L1100:
	add	sp, sp, #24
	@ sp needed
	pop	{r4, r5, r6, r7, r8, r10, fp, pc}
.L1104:
	uxth	r3, r6
	mov	r2, r7
	mov	r1, r10
	ldr	r5, [r4, #1992]
	str	r3, [sp]
	mov	r0, r4
	ldr	r3, [r4, #284]
	blx	r5
	cbz	r0, .L1103
	mov	r0, fp
	bl	NAND_Print
.L1103:
	adds	r6, r6, #1
.L1101:
	cmp	r8, r6
	bhi	.L1104
	ldr	r3, [r4, #4]
	movs	r5, #0
	ldrh	r2, [r10]
	add	r1, sp, #8
	strh	r5, [sp, #8]	@ movhi
	mov	r0, r4
	ldrh	r3, [r3, #28]
	strh	r2, [sp, #10]	@ movhi
	strd	r5, r5, [sp, #16]
	strh	r3, [sp, #12]	@ movhi
	ldr	r3, [r4, #2000]
	blx	r3
	cmp	r8, #0
	bne	.L1106
	str	r7, [r4, #292]
	mov	r0, r8
	strh	r8, [r4, #320]	@ movhi
	b	.L1100
.L1105:
	mov	r6, r0
	ldr	fp, .L1110+4
	b	.L1101
.L1106:
	mov	r0, r5
	b	.L1100
.L1111:
	.align	2
.L1110:
	.word	.LC131
	.word	.LC132
	.size	do_write_error_in_build_list, .-do_write_error_in_build_list
	.section	.text.init_nrc,"ax",%progbits
	.align	1
	.global	init_nrc
	.syntax unified
	.thumb
	.thumb_func
	.fpu softvfp
	.type	init_nrc, %function
init_nrc:
	@ args = 0, pretend = 0, frame = 0
	@ frame_needed = 0, uses_anonymous_args = 0
	push	{r3, r4, r5, r6, r7, lr}
	mov	r5, r0
	movs	r0, #16
	mov	r6, r1
	bl	NAND_Malloc
	mov	r4, r0
	cbnz	r0, .L1113
	mov	r2, #1400
	ldr	r1, .L1133
	ldr	r0, .L1133+4
	bl	NAND_Print
.L1132:
	mov	r0, #-1
	b	.L1112
.L1113:
	movs	r2, #16
	movs	r1, #0
	bl	NAND_Memset
	ldr	r3, [r5, #4]
	ldrh	r5, [r3, #20]
	ldrh	r0, [r3, #26]
	adds	r0, r0, #64
	muls	r0, r5, r0
	bl	nftl_malloc
	str	r0, [r4, #8]
	cbnz	r0, .L1115
	ldr	r1, .L1133
	movw	r2, #1409
	ldr	r0, .L1133+8
.L1131:
.L1116:
	bl	NAND_Print
	ldr	r0, [r4, #8]
	cbz	r0, .L1119
	bl	nftl_free
.L1119:
	ldr	r0, [r4, #12]
	cbz	r0, .L1120
	bl	nftl_free
.L1120:
	ldr	r0, [r4, #4]
	cbz	r0, .L1121
	bl	nftl_free
.L1121:
	mov	r0, r4
	bl	nftl_free
	movs	r3, #0
	str	r3, [r6]
	b	.L1132
.L1115:
	lsls	r7, r5, #2
	mov	r0, r7
	bl	nftl_malloc
	str	r0, [r4, #12]
	cbnz	r0, .L1117
	movw	r2, #1414
	ldr	r1, .L1133
	ldr	r0, .L1133+12
	b	.L1131
.L1117:
	mov	r2, r7
	movs	r1, #255
	bl	NAND_Memset
	mov	r0, r5
	bl	nftl_malloc
	str	r0, [r4, #4]
	cbnz	r0, .L1118
	movw	r2, #1420
	ldr	r1, .L1133
	ldr	r0, .L1133+16
	b	.L1131
.L1118:
	mov	r2, r5
	movs	r1, #0
	bl	NAND_Memset
	movs	r0, #0
	str	r4, [r6]
.L1112:
	pop	{r3, r4, r5, r6, r7, pc}
.L1134:
	.align	2
.L1133:
	.word	.LANCHOR89
	.word	.LC133
	.word	.LC134
	.word	.LC135
	.word	.LC136
	.size	init_nrc, .-init_nrc
	.section	.text.free_nrc,"ax",%progbits
	.align	1
	.global	free_nrc
	.syntax unified
	.thumb
	.thumb_func
	.fpu softvfp
	.type	free_nrc, %function
free_nrc:
	@ args = 0, pretend = 0, frame = 0
	@ frame_needed = 0, uses_anonymous_args = 0
	push	{r4, lr}
	mov	r4, r0
	cbz	r0, .L1136
	ldr	r0, [r0, #8]
	bl	nftl_free
	ldr	r0, [r4, #4]
	bl	nftl_free
	ldr	r0, [r4, #12]
	bl	nftl_free
	mov	r0, r4
	bl	nftl_free
.L1136:
	movs	r0, #0
	pop	{r4, pc}
	.size	free_nrc, .-free_nrc
	.section	.text.nftl_check_pattern,"ax",%progbits
	.align	1
	.global	nftl_check_pattern
	.syntax unified
	.thumb
	.thumb_func
	.fpu softvfp
	.type	nftl_check_pattern, %function
nftl_check_pattern:
	@ args = 0, pretend = 0, frame = 0
	@ frame_needed = 0, uses_anonymous_args = 0
	mov	r3, r0
	push	{r4, lr}
.L1141:
	subs	r4, r3, r0
	cmp	r2, r4
	bgt	.L1143
	movs	r0, #0
.L1140:
	pop	{r4, pc}
.L1143:
	ldrb	r4, [r3], #1	@ zero_extendqisi2
	cmp	r4, r1
	beq	.L1141
	movs	r0, #1
	b	.L1140
	.size	nftl_check_pattern, .-nftl_check_pattern
	.section	.text.is_last_phy_block,"ax",%progbits
	.align	1
	.global	is_last_phy_block
	.syntax unified
	.thumb
	.thumb_func
	.fpu softvfp
	.type	is_last_phy_block, %function
is_last_phy_block:
	@ args = 0, pretend = 0, frame = 0
	@ frame_needed = 0, uses_anonymous_args = 0
	@ link register save eliminated.
	ldr	r3, [r1, #4]
	ldrh	r0, [r0]
	ldrh	r3, [r3, #24]
	subs	r3, r3, #1
	subs	r3, r3, r0
	rsbs	r0, r3, #0
	adcs	r0, r0, r3
	bx	lr
	.size	is_last_phy_block, .-is_last_phy_block
	.section	.text.get_vaild_blocks,"ax",%progbits
	.align	1
	.global	get_vaild_blocks
	.syntax unified
	.thumb
	.thumb_func
	.fpu softvfp
	.type	get_vaild_blocks, %function
get_vaild_blocks:
	@ args = 0, pretend = 0, frame = 16
	@ frame_needed = 0, uses_anonymous_args = 0
	push	{r0, r1, r2, r3, r4, r5, r6, r7, r8, lr}
	movs	r4, #36
	ldr	r3, [r0, #4]
	sub	r8, r2, r1
	mov	r7, r0
	mov	r5, r1
	mov	r6, r8
	ldr	r3, [r3, #32]
	mla	r4, r4, r1, r3
.L1147:
	cmp	r5, r8
	bcc	.L1150
.L1146:
	mov	r0, r6
	add	sp, sp, #16
	@ sp needed
	pop	{r4, r5, r6, r7, r8, pc}
.L1150:
	ldrh	r3, [r4]
	mov	r1, sp
	mov	r0, r7
	strh	r3, [sp, #2]	@ movhi
	ldr	r3, [r7, #1996]
	blx	r3
	cmp	r0, #159
	bne	.L1148
	subs	r6, r6, #1
	beq	.L1146
.L1148:
	mov	r1, r7
	mov	r0, r4
	bl	is_last_phy_block
	cmp	r0, #1
	beq	.L1146
	adds	r4, r4, #36
	adds	r5, r5, #1
	b	.L1147
	.size	get_vaild_blocks, .-get_vaild_blocks
	.section	.text.is_phy_block_valid,"ax",%progbits
	.align	1
	.global	is_phy_block_valid
	.syntax unified
	.thumb
	.thumb_func
	.fpu softvfp
	.type	is_phy_block_valid, %function
is_phy_block_valid:
	@ args = 0, pretend = 0, frame = 0
	@ frame_needed = 0, uses_anonymous_args = 0
	@ link register save eliminated.
	ldr	r3, [r1, #4]
	ldrh	r0, [r0]
	ldrh	r3, [r3, #24]
	cmp	r0, r3
	ite	cs
	movcs	r0, #0
	movcc	r0, #1
	bx	lr
	.size	is_phy_block_valid, .-is_phy_block_valid
	.section	.text.get_phy_block_addr,"ax",%progbits
	.align	1
	.global	get_phy_block_addr
	.syntax unified
	.thumb
	.thumb_func
	.fpu softvfp
	.type	get_phy_block_addr, %function
get_phy_block_addr:
	@ args = 0, pretend = 0, frame = 0
	@ frame_needed = 0, uses_anonymous_args = 0
	@ link register save eliminated.
	ldr	r3, [r0, #4]
	movs	r0, #36
	ldr	r3, [r3, #32]
	mla	r0, r0, r1, r3
	bx	lr
	.size	get_phy_block_addr, .-get_phy_block_addr
	.section	.text.check_cross_talk,"ax",%progbits
	.align	1
	.global	check_cross_talk
	.syntax unified
	.thumb
	.thumb_func
	.fpu softvfp
	.type	check_cross_talk, %function
check_cross_talk:
	@ args = 0, pretend = 0, frame = 32
	@ frame_needed = 0, uses_anonymous_args = 0
	push	{r4, r5, r6, r7, lr}
	movs	r4, #0
	sub	sp, sp, #36
	mov	r5, r0
	mov	r6, r1
	mov	r7, r4
.L1160:
	ldr	r3, [r5, #4]
	ldrh	r2, [r3, #20]
	cmp	r2, r4
	bls	.L1162
	ldrh	r3, [r3, #28]
	add	r1, sp, #16
	ldrh	r2, [r6]
	mov	r0, r5
	strh	r4, [sp, #16]	@ movhi
	strh	r3, [sp, #20]	@ movhi
	strh	r2, [sp, #18]	@ movhi
	str	r7, [sp, #24]
	str	sp, [sp, #28]
	ldr	r3, [r5, #1984]
	blx	r3
	cbnz	r0, .L1161
	ldrb	r3, [sp, #14]	@ zero_extendqisi2
	cmp	r3, #99
	bhi	.L1161
	ldr	r2, [r5, #1968]
	ldr	r1, [r2, #168]
	cmp	r1, r3
	bhi	.L1161
	str	r3, [r2, #168]
.L1162:
	movs	r0, #0
	add	sp, sp, #36
	@ sp needed
	pop	{r4, r5, r6, r7, pc}
.L1161:
	adds	r4, r4, #1
	b	.L1160
	.size	check_cross_talk, .-check_cross_talk
	.section	.text.nftl_get_bad_block_cnt,"ax",%progbits
	.align	1
	.global	nftl_get_bad_block_cnt
	.syntax unified
	.thumb
	.thumb_func
	.fpu softvfp
	.type	nftl_get_bad_block_cnt, %function
nftl_get_bad_block_cnt:
	@ args = 0, pretend = 0, frame = 0
	@ frame_needed = 0, uses_anonymous_args = 0
	@ link register save eliminated.
	ldr	r3, [r0, #12]
	ldrh	r0, [r3, #20]
	bx	lr
	.size	nftl_get_bad_block_cnt, .-nftl_get_bad_block_cnt
	.section	.text.nand_dbg_phy_read,"ax",%progbits
	.align	1
	.global	nand_dbg_phy_read
	.syntax unified
	.thumb
	.thumb_func
	.fpu softvfp
	.type	nand_dbg_phy_read, %function
nand_dbg_phy_read:
	@ args = 0, pretend = 0, frame = 16
	@ frame_needed = 0, uses_anonymous_args = 0
	push	{r4, r5, r6, r7, lr}
	mov	r5, r0
	sub	sp, sp, #76
	mov	r0, #4096
	mov	r6, r1
	mov	r7, r2
	bl	NAND_Malloc
	mov	r4, r0
	cbnz	r0, .L1166
	ldr	r1, .L1167
	ldr	r0, .L1167+4
	bl	NAND_Print
.L1166:
	add	r3, sp, #56
	mov	r2, r7
	strd	r4, r3, [sp]
	mov	r1, r6
	movs	r3, #8
	mov	r0, r5
	bl	page_read
	mov	r5, r0
	ldrb	r0, [sp, #71]	@ zero_extendqisi2
	ldrb	r3, [sp, #58]	@ zero_extendqisi2
	ldrb	r2, [sp, #57]	@ zero_extendqisi2
	str	r0, [sp, #48]
	ldrb	r0, [sp, #70]	@ zero_extendqisi2
	ldrb	r1, [sp, #56]	@ zero_extendqisi2
	str	r0, [sp, #44]
	ldrb	r0, [sp, #69]	@ zero_extendqisi2
	str	r0, [sp, #40]
	ldrb	r0, [sp, #68]	@ zero_extendqisi2
	str	r0, [sp, #36]
	ldrb	r0, [sp, #67]	@ zero_extendqisi2
	str	r0, [sp, #32]
	ldrb	r0, [sp, #66]	@ zero_extendqisi2
	str	r0, [sp, #28]
	ldrb	r0, [sp, #65]	@ zero_extendqisi2
	str	r0, [sp, #24]
	ldrb	r0, [sp, #64]	@ zero_extendqisi2
	str	r0, [sp, #20]
	ldrb	r0, [sp, #63]	@ zero_extendqisi2
	str	r0, [sp, #16]
	ldrb	r0, [sp, #62]	@ zero_extendqisi2
	str	r0, [sp, #12]
	ldrb	r0, [sp, #61]	@ zero_extendqisi2
	str	r0, [sp, #8]
	ldrb	r0, [sp, #60]	@ zero_extendqisi2
	str	r0, [sp, #4]
	ldrb	r0, [sp, #59]	@ zero_extendqisi2
	str	r0, [sp]
	ldr	r0, .L1167+8
	bl	NAND_Print_DBG
	ldrb	r0, [r4, #10]	@ zero_extendqisi2
	ldrb	r3, [r4, #2]	@ zero_extendqisi2
	ldrb	r2, [r4, #1]	@ zero_extendqisi2
	ldrb	r1, [r4]	@ zero_extendqisi2
	str	r0, [sp, #28]
	ldrb	r0, [r4, #9]	@ zero_extendqisi2
	str	r0, [sp, #24]
	ldrb	r0, [r4, #8]	@ zero_extendqisi2
	str	r0, [sp, #20]
	ldrb	r0, [r4, #7]	@ zero_extendqisi2
	str	r0, [sp, #16]
	ldrb	r0, [r4, #6]	@ zero_extendqisi2
	str	r0, [sp, #12]
	ldrb	r0, [r4, #5]	@ zero_extendqisi2
	str	r0, [sp, #8]
	ldrb	r0, [r4, #4]	@ zero_extendqisi2
	str	r0, [sp, #4]
	ldrb	r0, [r4, #3]	@ zero_extendqisi2
	str	r0, [sp]
	ldr	r0, .L1167+12
	bl	NAND_Print_DBG
	mov	r0, r4
	bl	nftl_free
	mov	r0, r5
	add	sp, sp, #76
	@ sp needed
	pop	{r4, r5, r6, r7, pc}
.L1168:
	.align	2
.L1167:
	.word	.LANCHOR90
	.word	.LC137
	.word	.LC138
	.word	.LC139
	.size	nand_dbg_phy_read, .-nand_dbg_phy_read
	.section	.text.nand_dbg_zone_phy_read,"ax",%progbits
	.align	1
	.global	nand_dbg_zone_phy_read
	.syntax unified
	.thumb
	.thumb_func
	.fpu softvfp
	.type	nand_dbg_zone_phy_read, %function
nand_dbg_zone_phy_read:
	@ args = 0, pretend = 0, frame = 32
	@ frame_needed = 0, uses_anonymous_args = 0
	push	{r4, r5, r6, r7, lr}
	mov	r5, r0
	sub	sp, sp, #92
	mov	r0, #4096
	mov	r7, r1
	mov	r6, r2
	bl	NAND_Malloc
	mov	r4, r0
	cbnz	r0, .L1170
	ldr	r1, .L1171
	ldr	r0, .L1171+4
	bl	NAND_Print
.L1170:
	ldr	r3, [r5, #4]
	movs	r1, #36
	muls	r1, r7, r1
	mov	r0, r5
	ldr	r3, [r3, #32]
	ldrh	r3, [r3, r1]
	add	r1, sp, #56
	strh	r6, [sp, #56]	@ movhi
	str	r4, [sp, #64]
	strh	r3, [sp, #58]	@ movhi
	movs	r3, #8
	strh	r3, [sp, #60]	@ movhi
	add	r3, sp, #72
	str	r3, [sp, #68]
	ldr	r3, [r5, #1984]
	blx	r3
	mov	r5, r0
	ldrb	r0, [sp, #87]	@ zero_extendqisi2
	ldrb	r3, [sp, #74]	@ zero_extendqisi2
	ldrb	r2, [sp, #73]	@ zero_extendqisi2
	str	r0, [sp, #48]
	ldrb	r0, [sp, #86]	@ zero_extendqisi2
	ldrb	r1, [sp, #72]	@ zero_extendqisi2
	str	r0, [sp, #44]
	ldrb	r0, [sp, #85]	@ zero_extendqisi2
	str	r0, [sp, #40]
	ldrb	r0, [sp, #84]	@ zero_extendqisi2
	str	r0, [sp, #36]
	ldrb	r0, [sp, #83]	@ zero_extendqisi2
	str	r0, [sp, #32]
	ldrb	r0, [sp, #82]	@ zero_extendqisi2
	str	r0, [sp, #28]
	ldrb	r0, [sp, #81]	@ zero_extendqisi2
	str	r0, [sp, #24]
	ldrb	r0, [sp, #80]	@ zero_extendqisi2
	str	r0, [sp, #20]
	ldrb	r0, [sp, #79]	@ zero_extendqisi2
	str	r0, [sp, #16]
	ldrb	r0, [sp, #78]	@ zero_extendqisi2
	str	r0, [sp, #12]
	ldrb	r0, [sp, #77]	@ zero_extendqisi2
	str	r0, [sp, #8]
	ldrb	r0, [sp, #76]	@ zero_extendqisi2
	str	r0, [sp, #4]
	ldrb	r0, [sp, #75]	@ zero_extendqisi2
	str	r0, [sp]
	ldr	r0, .L1171+8
	bl	NAND_Print_DBG
	ldrb	r0, [r4, #10]	@ zero_extendqisi2
	ldrb	r3, [r4, #2]	@ zero_extendqisi2
	ldrb	r2, [r4, #1]	@ zero_extendqisi2
	ldrb	r1, [r4]	@ zero_extendqisi2
	str	r0, [sp, #28]
	ldrb	r0, [r4, #9]	@ zero_extendqisi2
	str	r0, [sp, #24]
	ldrb	r0, [r4, #8]	@ zero_extendqisi2
	str	r0, [sp, #20]
	ldrb	r0, [r4, #7]	@ zero_extendqisi2
	str	r0, [sp, #16]
	ldrb	r0, [r4, #6]	@ zero_extendqisi2
	str	r0, [sp, #12]
	ldrb	r0, [r4, #5]	@ zero_extendqisi2
	str	r0, [sp, #8]
	ldrb	r0, [r4, #4]	@ zero_extendqisi2
	str	r0, [sp, #4]
	ldrb	r0, [r4, #3]	@ zero_extendqisi2
	str	r0, [sp]
	ldr	r0, .L1171+12
	bl	NAND_Print_DBG
	mov	r0, r4
	bl	nftl_free
	mov	r0, r5
	add	sp, sp, #92
	@ sp needed
	pop	{r4, r5, r6, r7, pc}
.L1172:
	.align	2
.L1171:
	.word	.LANCHOR91
	.word	.LC137
	.word	.LC138
	.word	.LC139
	.size	nand_dbg_zone_phy_read, .-nand_dbg_zone_phy_read
	.section	.text.nand_dbg_zone_phy_write,"ax",%progbits
	.align	1
	.global	nand_dbg_zone_phy_write
	.syntax unified
	.thumb
	.thumb_func
	.fpu softvfp
	.type	nand_dbg_zone_phy_write, %function
nand_dbg_zone_phy_write:
	@ args = 0, pretend = 0, frame = 32
	@ frame_needed = 0, uses_anonymous_args = 0
	push	{r4, r5, r6, r7, r8, lr}
	mov	r5, r0
	sub	sp, sp, #32
	mov	r0, #8192
	mov	r6, r1
	mov	r7, r2
	bl	NAND_Malloc
	mov	r4, r0
	cbnz	r0, .L1174
	ldr	r1, .L1175
	ldr	r0, .L1175+4
	bl	NAND_Print
.L1174:
	ldr	r3, [r5, #4]
	movs	r2, #36
	muls	r6, r2, r6
	mov	r0, r4
	mov	r2, #4096
	movs	r1, #165
	ldr	r8, [r3, #32]
	bl	NAND_Memset
	ldr	r2, .L1175+8
	mov	r3, #-1
	strh	r3, [sp, #24]	@ movhi
	mov	r1, sp
	mov	r0, r5
	strd	r3, r2, [sp, #16]
	movw	r3, #65535
	strb	r3, [sp, #26]
	ldr	r3, [r5, #4]
	ldrh	r2, [r8, r6]
	strh	r7, [sp]	@ movhi
	ldrh	r3, [r3, #28]
	strh	r2, [sp, #2]	@ movhi
	str	r4, [sp, #8]
	strh	r3, [sp, #4]	@ movhi
	add	r3, sp, #16
	str	r3, [sp, #12]
	ldr	r3, [r5, #1988]
	blx	r3
	mov	r5, r0
	mov	r0, r4
	bl	nftl_free
	mov	r0, r5
	add	sp, sp, #32
	@ sp needed
	pop	{r4, r5, r6, r7, r8, pc}
.L1176:
	.align	2
.L1175:
	.word	.LANCHOR92
	.word	.LC140
	.word	-5921281
	.size	nand_dbg_zone_phy_write, .-nand_dbg_zone_phy_write
	.section	.text.nand_dbg_phy_write,"ax",%progbits
	.align	1
	.global	nand_dbg_phy_write
	.syntax unified
	.thumb
	.thumb_func
	.fpu softvfp
	.type	nand_dbg_phy_write, %function
nand_dbg_phy_write:
	@ args = 0, pretend = 0, frame = 16
	@ frame_needed = 0, uses_anonymous_args = 0
	push	{r4, r5, r6, r7, lr}
	mov	r5, r0
	sub	sp, sp, #28
	mov	r0, #8192
	mov	r6, r1
	mov	r7, r2
	bl	NAND_Malloc
	mov	r4, r0
	cbnz	r0, .L1178
	ldr	r1, .L1179
	ldr	r0, .L1179+4
	bl	NAND_Print
.L1178:
	mov	r0, r4
	mov	r2, #4096
	movs	r1, #165
	bl	NAND_Memset
	ldr	r2, .L1179+8
	mov	r3, #-1
	strh	r3, [sp, #16]	@ movhi
	mov	r1, r6
	mov	r0, r5
	strd	r3, r2, [sp, #8]
	movw	r3, #65535
	strb	r3, [sp, #18]
	add	r3, sp, #8
	strd	r4, r3, [sp]
	mov	r2, r7
	movs	r3, #8
	bl	page_write
	mov	r5, r0
	mov	r0, r4
	bl	nftl_free
	mov	r0, r5
	add	sp, sp, #28
	@ sp needed
	pop	{r4, r5, r6, r7, pc}
.L1180:
	.align	2
.L1179:
	.word	.LANCHOR93
	.word	.LC140
	.word	-5921281
	.size	nand_dbg_phy_write, .-nand_dbg_phy_write
	.section	.text.nand_dbg_phy_erase,"ax",%progbits
	.align	1
	.global	nand_dbg_phy_erase
	.syntax unified
	.thumb
	.thumb_func
	.fpu softvfp
	.type	nand_dbg_phy_erase, %function
nand_dbg_phy_erase:
	@ args = 0, pretend = 0, frame = 0
	@ frame_needed = 0, uses_anonymous_args = 0
	@ link register save eliminated.
	b	block_erase
	.size	nand_dbg_phy_erase, .-nand_dbg_phy_erase
	.section	.text.nand_dbg_single_phy_erase,"ax",%progbits
	.align	1
	.global	nand_dbg_single_phy_erase
	.syntax unified
	.thumb
	.thumb_func
	.fpu softvfp
	.type	nand_dbg_single_phy_erase, %function
nand_dbg_single_phy_erase:
	@ args = 0, pretend = 0, frame = 0
	@ frame_needed = 0, uses_anonymous_args = 0
	@ link register save eliminated.
	b	nand_physic_erase_block
	.size	nand_dbg_single_phy_erase, .-nand_dbg_single_phy_erase
	.section	.text.clean_block_list,"ax",%progbits
	.align	1
	.global	clean_block_list
	.syntax unified
	.thumb
	.thumb_func
	.fpu softvfp
	.type	clean_block_list, %function
clean_block_list:
	@ args = 0, pretend = 0, frame = 0
	@ frame_needed = 0, uses_anonymous_args = 0
	push	{r4, r5, r6, lr}
	mov	r5, r0
	movs	r4, #0
	mov	r6, #-1
.L1185:
	mov	r0, r5
	bl	out_phy_block_from_free_list
	cbnz	r0, .L1188
	mov	r1, r0
	mov	r4, #-1
.L1184:
	mov	r0, r5
	bl	out_phy_block_from_invalid_page_list
	cbz	r0, .L1183
	strh	r1, [r0, #4]	@ movhi
	strh	r1, [r0, #2]	@ movhi
	strd	r4, r1, [r0, #8]
	strd	r1, r1, [r0, #16]
	strd	r1, r1, [r0, #24]
	str	r1, [r0, #32]
	b	.L1184
.L1188:
	strh	r4, [r0, #4]	@ movhi
	strh	r4, [r0, #2]	@ movhi
	strd	r6, r4, [r0, #8]
	strd	r4, r4, [r0, #16]
	strd	r4, r4, [r0, #24]
	str	r4, [r0, #32]
	b	.L1185
.L1183:
	pop	{r4, r5, r6, pc}
	.size	clean_block_list, .-clean_block_list
	.section	.text.nand_clean_zone_table2,"ax",%progbits
	.align	1
	.global	nand_clean_zone_table2
	.syntax unified
	.thumb
	.thumb_func
	.fpu softvfp
	.type	nand_clean_zone_table2, %function
nand_clean_zone_table2:
	@ args = 0, pretend = 0, frame = 0
	@ frame_needed = 0, uses_anonymous_args = 0
	ldr	r3, [r0, #4]
	push	{r4, r5, r6, r7, r8, r10, fp, lr}
	mov	r4, r0
	ldr	r0, [r0, #24]
	add	r8, r4, #52
	mov	r5, r4
	ldrb	r1, [r3, #8]	@ zero_extendqisi2
	bl	__aeabi_uidiv
	lsls	r6, r0, #2
	ldr	fp, .L1198+4
	mov	r2, r0
	ldrb	r1, [r4, #16]	@ zero_extendqisi2
	lsrs	r7, r6, #20
	ldr	r0, .L1198
	add	r10, r8, r7, lsl #2
	bl	NAND_Print_DBG
.L1190:
	cmp	r8, r10
	bne	.L1191
	ubfx	r6, r6, #0, #20
	cbz	r6, .L1192
	add	r7, r4, r7, lsl #2
	movs	r1, #255
	mov	r2, r6
	ldr	r0, [r7, #52]
	bl	NAND_Memset
	mov	r1, r6
	ldr	r0, .L1198+4
	bl	NAND_Print_DBG
.L1192:
	movs	r3, #0
	movw	r2, #65535
	strh	r2, [r4, #320]	@ movhi
	strh	r2, [r4, #352]	@ movhi
	mov	r2, r3
	str	r3, [r4, #292]
	str	r3, [r4, #324]
	strd	r3, r3, [r4, #172]
	strd	r3, r3, [r4, #164]
	strd	r3, r3, [r4, #180]
	strd	r3, r3, [r4, #208]
	strd	r3, r3, [r4, #200]
	strd	r3, r3, [r4, #216]
	strd	r3, r3, [r4, #244]
	strd	r3, r3, [r4, #236]
	strd	r3, r3, [r4, #252]
	str	r3, [r4, #20]
	strh	r3, [r4, #392]	@ movhi
.L1193:
	strh	r3, [r5, #396]	@ movhi
	adds	r3, r3, #1
	cmp	r3, #10
	strh	r2, [r5, #398]	@ movhi
	strd	r2, r2, [r5, #400]
	add	r5, r5, #16
	str	r2, [r5, #392]
	bne	.L1193
	movs	r3, #255
	strh	r2, [r4, #394]	@ movhi
	strd	r3, r2, [r4, #556]
	movs	r0, #0
	strd	r2, r2, [r4, #564]
	pop	{r4, r5, r6, r7, r8, r10, fp, pc}
.L1191:
	ldr	r0, [r8], #4
	mov	r2, #1048576
	movs	r1, #255
	bl	NAND_Memset
	mov	r1, #1048576
	mov	r0, fp
	bl	NAND_Print_DBG
	b	.L1190
.L1199:
	.align	2
.L1198:
	.word	.LC141
	.word	.LC142
	.size	nand_clean_zone_table2, .-nand_clean_zone_table2
	.section	.text.nftl_clean_logic_page_map,"ax",%progbits
	.align	1
	.global	nftl_clean_logic_page_map
	.syntax unified
	.thumb
	.thumb_func
	.fpu softvfp
	.type	nftl_clean_logic_page_map, %function
nftl_clean_logic_page_map:
	@ args = 0, pretend = 0, frame = 0
	@ frame_needed = 0, uses_anonymous_args = 0
	push	{r3, r4, r5, r6, r7, r8, r10, lr}
	mov	r4, r0
	ldr	r3, [r0, #4]
	add	r6, r4, #52
	ldr	r0, [r0, #24]
	ldrb	r1, [r3, #8]	@ zero_extendqisi2
	bl	__aeabi_uidiv
	lsls	r5, r0, #2
	ldr	r10, .L1204+4
	mov	r2, r0
	ldrb	r1, [r4, #16]	@ zero_extendqisi2
	lsrs	r7, r5, #20
	ldr	r0, .L1204
	add	r8, r6, r7, lsl #2
	bl	NAND_Print_DBG
.L1201:
	cmp	r6, r8
	bne	.L1202
	ubfx	r5, r5, #0, #20
	cbz	r5, .L1200
	add	r4, r4, r7, lsl #2
	mov	r2, r5
	movs	r1, #255
	ldr	r0, [r4, #52]
	bl	NAND_Memset
	mov	r1, r5
	ldr	r0, .L1204+4
	pop	{r3, r4, r5, r6, r7, r8, r10, lr}
	b	NAND_Print_DBG
.L1202:
	ldr	r0, [r6], #4
	mov	r2, #1048576
	movs	r1, #255
	bl	NAND_Memset
	mov	r1, #1048576
	mov	r0, r10
	bl	NAND_Print_DBG
	b	.L1201
.L1200:
	pop	{r3, r4, r5, r6, r7, r8, r10, pc}
.L1205:
	.align	2
.L1204:
	.word	.LC141
	.word	.LC142
	.size	nftl_clean_logic_page_map, .-nftl_clean_logic_page_map
	.section	.text.nftl_clean_used_list,"ax",%progbits
	.align	1
	.global	nftl_clean_used_list
	.syntax unified
	.thumb
	.thumb_func
	.fpu softvfp
	.type	nftl_clean_used_list, %function
nftl_clean_used_list:
	@ args = 0, pretend = 0, frame = 0
	@ frame_needed = 0, uses_anonymous_args = 0
	ldr	r1, [r0, #4]
	movs	r3, #0
	push	{r4, r5, r6, lr}
	movs	r6, #36
	mov	r4, r3
	ldrh	r5, [r1, #24]
.L1207:
	cmp	r5, r3
	bgt	.L1208
	movs	r3, #0
	strd	r3, r3, [r0, #244]
	strd	r3, r3, [r0, #236]
	strd	r3, r3, [r0, #252]
	pop	{r4, r5, r6, pc}
.L1208:
	ldr	r2, [r1, #32]
	mla	r2, r6, r3, r2
	adds	r3, r3, #1
	strd	r4, r4, [r2, #28]
	b	.L1207
	.size	nftl_clean_used_list, .-nftl_clean_used_list
	.section	.text.nftl_clean_invalid_list,"ax",%progbits
	.align	1
	.global	nftl_clean_invalid_list
	.syntax unified
	.thumb
	.thumb_func
	.fpu softvfp
	.type	nftl_clean_invalid_list, %function
nftl_clean_invalid_list:
	@ args = 0, pretend = 0, frame = 0
	@ frame_needed = 0, uses_anonymous_args = 0
	ldr	r1, [r0, #4]
	movs	r3, #0
	push	{r4, r5, r6, lr}
	movs	r6, #36
	mov	r4, r3
	ldrh	r5, [r1, #24]
.L1210:
	cmp	r5, r3
	bgt	.L1211
	movs	r3, #0
	strd	r3, r3, [r0, #208]
	strd	r3, r3, [r0, #200]
	strd	r3, r3, [r0, #216]
	pop	{r4, r5, r6, pc}
.L1211:
	ldr	r2, [r1, #32]
	mla	r2, r6, r3, r2
	adds	r3, r3, #1
	strd	r4, r4, [r2, #12]
	b	.L1210
	.size	nftl_clean_invalid_list, .-nftl_clean_invalid_list
	.section	.text.clean_zone,"ax",%progbits
	.align	1
	.global	clean_zone
	.syntax unified
	.thumb
	.thumb_func
	.fpu softvfp
	.type	clean_zone, %function
clean_zone:
	@ args = 0, pretend = 0, frame = 16
	@ frame_needed = 0, uses_anonymous_args = 0
	push	{r0, r1, r2, r3, r4, r5, r6, r7, r8, lr}
	mov	r4, r0
	cbz	r0, .L1213
	ldrb	r6, [r0, #1976]	@ zero_extendqisi2
	cmp	r6, #0
	beq	.L1214
.L1213:
	ldr	r5, [r4, #172]
	movs	r6, #0
	ldr	r7, .L1242
	ldr	r8, .L1242+4
.L1215:
	cmp	r5, #0
	bne	.L1217
	ldr	r5, [r4, #252]
	ldr	r7, .L1242
	ldr	r8, .L1242+12
.L1218:
	cmp	r5, #0
	bne	.L1220
	ldr	r3, [r4, #292]
	cbz	r3, .L1221
	ldrh	r2, [r3]
	mov	r1, sp
	ldr	r3, [r4, #4]
	mov	r0, r4
	strh	r5, [sp]	@ movhi
	strh	r2, [sp, #2]	@ movhi
	ldrh	r3, [r3, #28]
	strd	r5, r5, [sp, #8]
	strh	r3, [sp, #4]	@ movhi
	ldr	r3, [r4, #1980]
	blx	r3
	cbz	r0, .L1222
	ldrh	r2, [r5]
	ldr	r1, .L1242
	ldr	r0, .L1242+4
	bl	NAND_Print
	ldr	r3, [r4, #2000]
	mov	r1, sp
	mov	r0, r4
	blx	r3
	ldrh	r3, [r4, #20]
	adds	r3, r3, #1
	strh	r3, [r4, #20]	@ movhi
.L1222:
	movs	r1, #0
	movs	r6, #1
	ldrh	r3, [r1, #6]
	mov	r0, r4
	strh	r1, [r1, #2]	@ movhi
	strh	r1, [r1, #4]	@ movhi
	adds	r3, r3, #1
	strh	r3, [r1, #6]	@ movhi
	bl	put_phy_block_to_free_list
.L1221:
	mov	r0, r4
	bl	nftl_clean_logic_page_map
	mov	r0, r4
	bl	nftl_clean_used_list
	bl	nftl_clean_invalid_list
	bl	out_phy_block_from_free_list
	str	r0, [r4, #292]
	cbnz	r0, .L1223
	ldr	r0, .L1242+8
	bl	NAND_Print
.L1223:
	ldr	r2, [r4, #292]
	movs	r3, #0
	strh	r3, [r4, #320]	@ movhi
	ldr	r3, [r2, #8]
	adds	r3, r3, #1
	str	r3, [r2, #8]
.L1214:
	mov	r0, r6
	add	sp, sp, #16
	@ sp needed
	pop	{r4, r5, r6, r7, r8, pc}
.L1217:
	ldr	r3, [r4, #4]
	movs	r6, #0
	ldrh	r2, [r5]
	mov	r1, sp
	strh	r6, [sp]	@ movhi
	mov	r0, r4
	ldrh	r3, [r3, #28]
	strh	r2, [sp, #2]	@ movhi
	strd	r6, r6, [sp, #8]
	strh	r3, [sp, #4]	@ movhi
	ldr	r3, [r4, #1980]
	blx	r3
	cbz	r0, .L1216
	ldrh	r2, [r5]
	mov	r1, r7
	mov	r0, r8
	bl	NAND_Print
	ldr	r3, [r4, #2000]
	mov	r1, sp
	mov	r0, r4
	blx	r3
	movs	r3, #255
	strh	r6, [r5, #4]	@ movhi
	strh	r3, [r5, #2]	@ movhi
	mov	r1, r5
	ldrh	r3, [r4, #20]
	mov	r0, r4
	adds	r3, r3, #1
	strh	r3, [r4, #20]	@ movhi
	bl	out_phy_block_from_free_list_by_block
.L1216:
	ldrh	r3, [r5, #6]
	movs	r6, #1
	adds	r3, r3, #1
	strh	r3, [r5, #6]	@ movhi
	ldr	r5, [r5, #20]
	b	.L1215
.L1220:
	ldr	r3, [r4, #4]
	mov	r0, r4
	ldrh	r1, [r5]
	ldrh	r2, [r3, #28]
	movs	r3, #0
	strh	r3, [sp]	@ movhi
	strh	r1, [sp, #2]	@ movhi
	mov	r1, sp
	strd	r3, r3, [sp, #8]
	strh	r2, [sp, #4]	@ movhi
	ldr	r3, [r4, #1980]
	blx	r3
	cbz	r0, .L1219
	ldrh	r2, [r5]
	mov	r1, r7
	mov	r0, r8
	bl	NAND_Print
	ldr	r3, [r4, #2000]
	mov	r1, sp
	mov	r0, r4
	blx	r3
	ldrh	r3, [r4, #20]
	adds	r3, r3, #1
	strh	r3, [r4, #20]	@ movhi
.L1219:
	ldrh	r3, [r5, #6]
	movs	r2, #0
	strh	r2, [r5, #2]	@ movhi
	mov	r1, r5
	strh	r2, [r5, #4]	@ movhi
	mov	r0, r4
	adds	r3, r3, #1
	movs	r6, #1
	strh	r3, [r5, #6]	@ movhi
	bl	put_phy_block_to_free_list
	ldr	r5, [r5, #28]
	b	.L1218
.L1243:
	.align	2
.L1242:
	.word	.LANCHOR94
	.word	.LC143
	.word	.LC145
	.word	.LC144
	.size	clean_zone, .-clean_zone
	.section	.text.nftl_clean_zone,"ax",%progbits
	.align	1
	.global	nftl_clean_zone
	.syntax unified
	.thumb
	.thumb_func
	.fpu softvfp
	.type	nftl_clean_zone, %function
nftl_clean_zone:
	@ args = 0, pretend = 0, frame = 0
	@ frame_needed = 0, uses_anonymous_args = 0
	@ link register save eliminated.
	ldr	r3, .L1246
	ldr	r0, [r3, #8]
	cbz	r0, .L1245
	ldr	r0, [r0, #12]
	b	clean_zone
.L1245:
	bx	lr
.L1247:
	.align	2
.L1246:
	.word	.LANCHOR0
	.size	nftl_clean_zone, .-nftl_clean_zone
	.section	.text.set_spare_data,"ax",%progbits
	.align	1
	.global	set_spare_data
	.syntax unified
	.thumb
	.thumb_func
	.fpu softvfp
	.type	set_spare_data, %function
set_spare_data:
	@ args = 0, pretend = 0, frame = 0
	@ frame_needed = 0, uses_anonymous_args = 0
	push	{r4, r5, r6, lr}
	add	r6, r3, #536870912
	movs	r4, #0
	add	r2, r2, r0
	subs	r6, r6, #1
.L1249:
	cmp	r3, r4
	bhi	.L1250
	pop	{r4, r5, r6, pc}
.L1250:
	subs	r5, r6, r4
	lsls	r5, r5, #3
	lsr	r5, r1, r5
	strb	r5, [r2, r4]
	adds	r4, r4, #1
	b	.L1249
	.size	set_spare_data, .-set_spare_data
	.section	.text.panic_write,"ax",%progbits
	.align	1
	.global	panic_write
	.syntax unified
	.thumb
	.thumb_func
	.fpu softvfp
	.type	panic_write, %function
panic_write:
	@ args = 0, pretend = 0, frame = 48
	@ frame_needed = 0, uses_anonymous_args = 0
	push	{r4, r5, r6, r7, r8, r10, fp, lr}
	sub	sp, sp, #56
	str	r3, [sp, #16]
	mov	fp, r2
	ldr	r3, .L1264
	str	r1, [sp, #12]
	ldr	r3, [r3]
	cbz	r3, .L1262
	ldr	r8, [r0, #12]
	movs	r2, #1
	ldr	r3, .L1264+4
	add	r0, fp, #-1
	ldr	r7, .L1264+8
	ldr	r5, [r8, #4]
	str	r2, [r3]
	ldrb	r1, [r5, #8]	@ zero_extendqisi2
	add	r0, r0, r1
	bl	__aeabi_uidiv
	ldrh	r1, [r5, #20]
	mov	r10, r0
	subs	r0, r1, #1
	add	r0, r0, r10
	bl	__aeabi_uidiv
	mov	r3, r10
	str	r0, [sp]
	mov	r2, fp
	ldr	r1, [sp, #12]
	ldr	r0, .L1264+12
	bl	NAND_Print
	ldr	r3, [r7, #12]
	subs	r3, r3, #3
	cmp	r3, r10
	bcs	.L1253
	ldrb	r1, [r5, #8]	@ zero_extendqisi2
	ldr	r0, .L1264+16
	muls	r1, r3, r1
	bl	NAND_Print
.L1262:
	mov	r0, #-1
	b	.L1251
.L1253:
	movs	r2, #16
	movs	r1, #165
	add	r0, sp, #24
	mov	r4, r7
	bl	NAND_Memset
	ldr	r3, [r7, #16]
	ldr	r6, [r7, r3, lsl #2]
.L1254:
	ldr	r3, [r7, #20]
	cmp	r10, #0
	bne	.L1257
	ldr	fp, .L1264+24
	movs	r7, #3
	add	r10, sp, #24
	movs	r3, #98
	strb	r3, [sp, #26]
.L1261:
	ldr	r2, [r4, #20]
	cmp	r2, #0
	bne	.L1258
.L1259:
	movs	r0, #0
.L1251:
	add	sp, sp, #56
	@ sp needed
	pop	{r4, r5, r6, r7, r8, r10, fp, pc}
.L1257:
	ldrh	r2, [r5, #20]
	cmp	r3, r2
	bcc	.L1255
	ldr	r3, [r7, #16]
	adds	r3, r3, #1
	str	r3, [r7, #16]
	ldr	r6, [r7, r3, lsl #2]
	movs	r3, #0
	str	r3, [r7, #20]
.L1255:
	ldr	r3, [r4, #20]
	ldrh	r1, [r6]
	cbnz	r3, .L1256
	ldrh	r2, [r5, #28]
	mov	r0, r8
	strh	r3, [sp, #40]	@ movhi
	strh	r1, [sp, #42]	@ movhi
	add	r1, sp, #40
	strh	r2, [sp, #44]	@ movhi
	strd	r3, r3, [sp, #48]
	ldr	r2, [r8, #1980]
	str	r3, [sp, #20]
	blx	r2
	ldrh	r2, [r6, #6]
	ldr	r3, [sp, #20]
	adds	r2, r2, #1
	strh	r2, [r6, #6]	@ movhi
	strh	r3, [r6, #4]	@ movhi
.L1256:
	ldr	r2, [r4, #20]
	add	r10, r10, #-1
	ldrh	r1, [r6]
	ldr	r0, .L1264+20
	bl	NAND_Print
	movw	r3, #43775
	movs	r2, #5
	strh	r3, [sp, #24]	@ movhi
	movs	r3, #99
	strb	r3, [sp, #26]
	add	r0, sp, #24
	ldrb	r3, [r8, #16]	@ zero_extendqisi2
	strb	r3, [sp, #27]
	ldr	r3, [r4, #16]
	strb	r3, [sp, #28]
	movs	r3, #2
	ldrh	r1, [r6, #6]
	bl	set_spare_data
	movs	r3, #4
	movs	r2, #7
	ldr	r1, [sp, #12]
	add	r0, sp, #24
	bl	set_spare_data
	ldrb	r1, [r5, #8]	@ zero_extendqisi2
	movs	r3, #4
	movs	r2, #11
	add	r0, sp, #24
	cmp	r1, fp
	it	cs
	movcs	r1, fp
	bl	set_spare_data
	ldrh	r3, [r5, #28]
	mov	r0, r8
	ldrh	r2, [r6]
	ldr	r1, [r4, #20]
	strh	r3, [sp, #44]	@ movhi
	ldr	r3, [sp, #16]
	strh	r1, [sp, #40]	@ movhi
	add	r1, sp, #40
	strh	r2, [sp, #42]	@ movhi
	str	r3, [sp, #48]
	add	r3, sp, #24
	str	r3, [sp, #52]
	ldr	r3, [r8, #1988]
	blx	r3
	ldr	r2, [sp, #16]
	ldrh	r3, [r5, #26]
	adds	r3, r2, r3
	ldr	r2, [sp, #12]
	str	r3, [sp, #16]
	ldrb	r3, [r5, #8]	@ zero_extendqisi2
	cmp	r3, fp
	it	cs
	movcs	r3, fp
	add	r2, r2, r3
	sub	fp, fp, r3
	ldr	r3, [r4, #12]
	str	r2, [sp, #12]
	subs	r3, r3, #1
	str	r3, [r4, #12]
	ldr	r3, [r4, #20]
	adds	r3, r3, #1
	str	r3, [r4, #20]
	b	.L1254
.L1258:
	ldrh	r3, [r5, #20]
	cmp	r2, r3
	bcs	.L1259
	ldrh	r1, [r6]
	mov	r0, fp
	bl	NAND_Print
	ldrh	r3, [r5, #28]
	mov	r0, r8
	ldrh	r2, [r6]
	ldr	r1, [r4, #20]
	strh	r3, [sp, #44]	@ movhi
	ldr	r3, [sp, #16]
	strh	r1, [sp, #40]	@ movhi
	add	r1, sp, #40
	strh	r2, [sp, #42]	@ movhi
	strd	r3, r10, [sp, #48]
	ldr	r3, [r8, #1988]
	blx	r3
	ldr	r2, [r4, #12]
	ldr	r3, [r4, #20]
	subs	r2, r2, #1
	str	r2, [r4, #12]
	adds	r3, r3, #1
	ldrh	r2, [r5, #20]
	str	r3, [r4, #20]
	cmp	r3, r2
	bcc	.L1260
	ldr	r3, [r4, #16]
	adds	r3, r3, #1
	str	r3, [r4, #16]
	ldr	r6, [r4, r3, lsl #2]
	movs	r3, #0
	str	r3, [r4, #20]
.L1260:
	subs	r7, r7, #1
	bne	.L1261
	b	.L1259
.L1265:
	.align	2
.L1264:
	.word	.LANCHOR86
	.word	.LANCHOR85
	.word	.LANCHOR88
	.word	.LC146
	.word	.LC147
	.word	.LC148
	.word	.LC149
	.size	panic_write, .-panic_write
	.section	.text.get_spare_data,"ax",%progbits
	.align	1
	.global	get_spare_data
	.syntax unified
	.thumb
	.thumb_func
	.fpu softvfp
	.type	get_spare_data, %function
get_spare_data:
	@ args = 0, pretend = 0, frame = 0
	@ frame_needed = 0, uses_anonymous_args = 0
	movs	r3, #0
	push	{r4, lr}
	add	r1, r1, r0
	mov	r4, r3
.L1267:
	cmp	r2, r3
	bhi	.L1268
	mov	r0, r4
	pop	{r4, pc}
.L1268:
	ldrb	r0, [r1, r3]	@ zero_extendqisi2
	adds	r3, r3, #1
	orr	r4, r0, r4, lsl #8
	b	.L1267
	.size	get_spare_data, .-get_spare_data
	.section	.text.set_oob_logic_page,"ax",%progbits
	.align	1
	.global	set_oob_logic_page
	.syntax unified
	.thumb
	.thumb_func
	.fpu softvfp
	.type	set_oob_logic_page, %function
set_oob_logic_page:
	@ args = 4, pretend = 0, frame = 0
	@ frame_needed = 0, uses_anonymous_args = 0
	push	{r3, r4, r5, lr}
	mov	r4, r1
	mov	r5, r3
	movs	r3, #255
	mov	r1, r2
	mov	r0, r4
	strb	r3, [r4]
	movs	r2, #1
	movs	r3, #4
	bl	set_spare_data
	movs	r3, #2
	movs	r2, #5
	ldrh	r1, [sp, #16]
	bl	set_spare_data
	movs	r3, #4
	movs	r2, #7
	mov	r1, r5
	bl	set_spare_data
	ldrb	r3, [r4, #1]	@ zero_extendqisi2
	orn	r3, r3, #63
	strb	r3, [r4, #1]
	pop	{r3, r4, r5, pc}
	.size	set_oob_logic_page, .-set_oob_logic_page
	.section	.text.set_oob_special_page,"ax",%progbits
	.align	1
	.global	set_oob_special_page
	.syntax unified
	.thumb
	.thumb_func
	.fpu softvfp
	.type	set_oob_special_page, %function
set_oob_special_page:
	@ args = 4, pretend = 0, frame = 0
	@ frame_needed = 0, uses_anonymous_args = 0
	push	{r4, r5, r6, lr}
	mov	r4, r1
	ldrh	r6, [sp, #16]
	mov	r5, r3
	movs	r3, #255
	mov	r1, r2
	strb	r3, [r4]
	mov	r0, r4
	movs	r3, #4
	movs	r2, #1
	bl	set_spare_data
	mov	r1, r6
	movs	r3, #2
	movs	r2, #5
	bl	set_spare_data
	mov	r1, r5
	movs	r3, #4
	movs	r2, #7
	pop	{r4, r5, r6, lr}
	b	set_spare_data
	.size	set_oob_special_page, .-set_oob_special_page
	.section	.text.mark_free_block,"ax",%progbits
	.align	1
	.global	mark_free_block
	.syntax unified
	.thumb
	.thumb_func
	.fpu softvfp
	.type	mark_free_block, %function
mark_free_block:
	@ args = 0, pretend = 0, frame = 32
	@ frame_needed = 0, uses_anonymous_args = 0
	push	{r4, r5, r6, r7, lr}
	sub	sp, sp, #44
	add	r6, sp, #24
	mov	r4, r0
	mov	r5, r1
	mov	r0, r6
	movs	r2, #16
	movs	r1, #165
	bl	NAND_Memset
	ldr	r3, [r4, #4]
	movs	r7, #0
	ldrh	r1, [r5]
	mov	r0, r4
	strh	r7, [sp, #8]	@ movhi
	ldrh	r2, [r3, #28]
	ldr	r3, [r4, #284]
	strh	r1, [sp, #10]	@ movhi
	mov	r1, r6
	strh	r2, [sp, #12]	@ movhi
	mov	r2, #1431655765
	strd	r3, r6, [sp, #16]
	ldrh	r3, [r5, #6]
	str	r3, [sp]
	ldr	r3, [r5, #8]
	bl	set_oob_special_page
	ldr	r3, [r4, #1988]
	add	r1, sp, #8
	mov	r0, r4
	blx	r3
	ldr	r3, [r4, #4]
	movs	r0, #1
	ldrh	r1, [r5]
	strh	r0, [sp, #8]	@ movhi
	mov	r0, r4
	ldrh	r2, [r3, #28]
	ldr	r3, [r4, #284]
	strh	r1, [sp, #10]	@ movhi
	mov	r1, r6
	strh	r2, [sp, #12]	@ movhi
	mov	r2, #1431655765
	strd	r3, r6, [sp, #16]
	ldrh	r3, [r5, #6]
	str	r3, [sp]
	ldr	r3, [r5, #8]
	bl	set_oob_special_page
	ldr	r3, [r4, #1988]
	add	r1, sp, #8
	mov	r0, r4
	blx	r3
	ldr	r3, [r4, #4]
	ldrh	r0, [r5]
	ldr	r2, [r4, #284]
	ldrh	r1, [r3, #28]
	ldrh	r3, [r3, #20]
	strh	r0, [sp, #10]	@ movhi
	mov	r0, r4
	strh	r1, [sp, #12]	@ movhi
	mov	r1, r6
	subs	r3, r3, #2
	strd	r2, r6, [sp, #16]
	strh	r3, [sp, #8]	@ movhi
	mov	r2, #1431655765
	ldrh	r3, [r5, #6]
	str	r3, [sp]
	ldr	r3, [r5, #8]
	bl	set_oob_special_page
	ldr	r3, [r4, #1988]
	add	r1, sp, #8
	mov	r0, r4
	blx	r3
	ldr	r3, [r4, #4]
	ldrh	r0, [r5]
	ldr	r2, [r4, #284]
	ldrh	r1, [r3, #28]
	ldrh	r3, [r3, #20]
	strh	r0, [sp, #10]	@ movhi
	mov	r0, r4
	strh	r1, [sp, #12]	@ movhi
	mov	r1, r6
	subs	r3, r3, #1
	strd	r2, r6, [sp, #16]
	strh	r3, [sp, #8]	@ movhi
	mov	r2, #1431655765
	ldrh	r3, [r5, #6]
	str	r3, [sp]
	ldr	r3, [r5, #8]
	bl	set_oob_special_page
	ldr	r3, [r4, #1988]
	add	r1, sp, #8
	mov	r0, r4
	blx	r3
	mov	r0, r7
	add	sp, sp, #44
	@ sp needed
	pop	{r4, r5, r6, r7, pc}
	.size	mark_free_block, .-mark_free_block
	.section	.text.erase_block,"ax",%progbits
	.align	1
	.global	erase_block
	.syntax unified
	.thumb
	.thumb_func
	.fpu softvfp
	.type	erase_block, %function
erase_block:
	@ args = 0, pretend = 0, frame = 16
	@ frame_needed = 0, uses_anonymous_args = 0
	push	{r0, r1, r2, r3, r4, r5, r6, r7, r8, lr}
	mov	r5, r0
	mov	r4, r1
	ldr	r0, .L1275
	mov	r8, r2
	movs	r6, #0
	ldrh	r1, [r1]
	bl	NAND_Print
	ldr	r3, [r5, #4]
	mov	r1, sp
	ldrh	r2, [r4]
	mov	r0, r5
	strh	r6, [sp]	@ movhi
	ldrh	r3, [r3, #28]
	strh	r2, [sp, #2]	@ movhi
	strd	r6, r6, [sp, #8]
	strh	r3, [sp, #4]	@ movhi
	ldr	r3, [r5, #1980]
	blx	r3
	mov	r7, r0
	cbz	r0, .L1273
	ldrh	r1, [r4]
	ldr	r0, .L1275+4
	bl	NAND_Print
	ldr	r3, [r5, #2000]
	mov	r1, sp
	mov	r0, r5
	blx	r3
	movs	r3, #255
	strh	r6, [r4, #4]	@ movhi
	strh	r3, [r4, #2]	@ movhi
	ldrh	r3, [r5, #20]
	adds	r3, r3, #1
	strh	r3, [r5, #20]	@ movhi
.L1272:
	mov	r0, r7
	add	sp, sp, #16
	@ sp needed
	pop	{r4, r5, r6, r7, r8, pc}
.L1273:
	mov	r3, #-1
	mov	r1, r4
	str	r3, [r4, #8]
	mov	r0, r5
	strh	r8, [r4, #6]	@ movhi
	bl	put_phy_block_to_free_list
	mov	r1, r4
	mov	r0, r5
	bl	mark_free_block
	ldr	r3, [r5, #4]
	mov	r1, r4
	mov	r0, r5
	ldrh	r3, [r3, #20]
	strh	r7, [r4, #2]	@ movhi
	strh	r3, [r4, #4]	@ movhi
	bl	out_phy_block_from_used_list_by_block
	mov	r0, r5
	bl	out_phy_block_from_invalid_page_list_by_block
	b	.L1272
.L1276:
	.align	2
.L1275:
	.word	.LC150
	.word	.LC151
	.size	erase_block, .-erase_block
	.section	.text.adjust_free_list,"ax",%progbits
	.align	1
	.global	adjust_free_list
	.syntax unified
	.thumb
	.thumb_func
	.fpu softvfp
	.type	adjust_free_list, %function
adjust_free_list:
	@ args = 0, pretend = 0, frame = 0
	@ frame_needed = 0, uses_anonymous_args = 0
	push	{r3, r4, r5, lr}
	mov	r5, r0
	bl	out_phy_block_from_free_list
	mov	r4, r0
	cbnz	r0, .L1278
	ldr	r0, .L1279
	bl	NAND_Print
.L1278:
	ldrh	r2, [r4, #6]
	mov	r1, r4
	mov	r0, r5
	adds	r2, r2, #1
	uxth	r2, r2
	bl	erase_block
	mov	r1, r4
	mov	r0, r5
	bl	out_phy_block_from_free_list_by_block
	str	r0, [r5, #48]
	ldrh	r2, [r0, #6]
	ldrh	r1, [r0]
	ldr	r0, .L1279+4
	bl	NAND_Print
	movs	r0, #0
	pop	{r3, r4, r5, pc}
.L1280:
	.align	2
.L1279:
	.word	.LC152
	.word	.LC153
	.size	adjust_free_list, .-adjust_free_list
	.section	.text.nand_dbg_zone_erase,"ax",%progbits
	.align	1
	.global	nand_dbg_zone_erase
	.syntax unified
	.thumb
	.thumb_func
	.fpu softvfp
	.type	nand_dbg_zone_erase, %function
nand_dbg_zone_erase:
	@ args = 0, pretend = 0, frame = 0
	@ frame_needed = 0, uses_anonymous_args = 0
	push	{r3, r4, r5, lr}
	mov	r5, r2
	ldr	r3, [r0, #4]
	movs	r2, #36
	mov	r4, r0
	ldr	r3, [r3, #32]
	mla	r1, r2, r1, r3
	bl	out_phy_block_from_free_list_by_block
	mov	r2, r5
	mov	r1, r0
	mov	r0, r4
	pop	{r3, r4, r5, lr}
	b	erase_block
	.size	nand_dbg_zone_erase, .-nand_dbg_zone_erase
	.section	.text.panic_recover_data,"ax",%progbits
	.align	1
	.global	panic_recover_data
	.syntax unified
	.thumb
	.thumb_func
	.fpu softvfp
	.type	panic_recover_data, %function
panic_recover_data:
	@ args = 0, pretend = 0, frame = 40
	@ frame_needed = 0, uses_anonymous_args = 0
	push	{r4, r5, r6, r7, r8, r10, fp, lr}
	sub	sp, sp, #40
	ldr	r4, .L1301
	ldr	r5, [r4]
	cbnz	r5, .L1283
	ldr	r0, .L1301+4
	bl	NAND_Print
.L1300:
	movs	r0, #0
	b	.L1282
.L1283:
	ldr	r6, [r0, #12]
	ldr	r0, .L1301+8
	ldr	r7, [r6, #4]
	bl	NAND_Print
	ldrh	r0, [r7, #26]
	bl	NAND_Malloc
	mov	fp, r0
	cbnz	r0, .L1285
	mov	r2, #308
	ldr	r1, .L1301+12
	ldr	r0, .L1301+16
	bl	NAND_Print
	mov	r0, #-1
.L1282:
	add	sp, sp, #40
	@ sp needed
	pop	{r4, r5, r6, r7, r8, r10, fp, pc}
.L1285:
	ldrh	r2, [r7, #26]
	movs	r1, #0
	bl	NAND_Memset
	movs	r3, #0
.L1299:
	str	r3, [r4, #16]
	ldr	r3, [r4, #16]
	cmp	r3, #2
	bhi	.L1293
	ldr	r3, [r4, r3, lsl #2]
	str	r3, [sp]
	movs	r3, #0
.L1298:
	str	r3, [r4, #20]
	ldrh	r2, [r7, #20]
	ldr	r3, [r4, #20]
	cmp	r3, r2
	bcc	.L1294
	ldr	r3, [r4, #16]
	adds	r3, r3, #1
	b	.L1299
.L1294:
	ldr	r2, [sp]
	add	r5, sp, #24
	mov	r0, r6
	ldrh	r1, [r2]
	ldrh	r2, [r7, #28]
	strh	r3, [sp, #8]	@ movhi
	strh	r1, [sp, #10]	@ movhi
	add	r1, sp, #8
	ldr	r3, [r6, #1984]
	strh	r2, [sp, #12]	@ movhi
	str	fp, [sp, #16]
	str	r5, [sp, #20]
	blx	r3
	mov	r0, r5
	bl	is_panic_dummy_page
	ldr	r3, [sp]
	ldrh	r8, [r3]
	cbz	r0, .L1288
	ldr	r2, [r4, #20]
	mov	r1, r8
	ldr	r0, .L1301+20
	bl	NAND_Print
.L1289:
	ldr	r3, [r4, #20]
	adds	r3, r3, #1
	b	.L1298
.L1288:
	mov	r0, r5
	bl	is_panic_data_page
	ldr	r10, [r4, #20]
	cbnz	r0, .L1290
	ldr	r3, [r4, #16]
	mov	r2, r10
	mov	r1, r8
	cbnz	r3, .L1291
	cmp	r10, #0
	bne	.L1291
	ldr	r0, .L1301+24
	bl	NAND_Print
.L1292:
	movs	r1, #0
	mov	r0, fp
	bl	NAND_Free
	b	.L1300
.L1291:
	ldr	r0, .L1301+28
	bl	NAND_Print
.L1293:
	ldr	r3, [r4, #16]
	cmp	r3, #0
	blt	.L1292
	ldr	r1, [r4, r3, lsl #2]
	mov	r0, r6
	ldrh	r2, [r1, #6]
	adds	r2, r2, #1
	uxth	r2, r2
	bl	erase_block
	ldr	r3, [r4, #16]
	subs	r3, r3, #1
	str	r3, [r4, #16]
	b	.L1293
.L1290:
	movs	r2, #4
	movs	r1, #7
	mov	r0, r5
	bl	get_spare_data
	movs	r2, #4
	str	r0, [sp, #4]
	movs	r1, #11
	mov	r0, r5
	bl	get_spare_data
	mov	r2, r10
	mov	r5, r0
	mov	r1, r8
	ldr	r3, [sp, #4]
	ldr	r0, .L1301+32
	bl	NAND_Print
	mov	r2, fp
	mov	r1, r5
	ldr	r0, [sp, #4]
	bl	nftl_write
	b	.L1289
.L1302:
	.align	2
.L1301:
	.word	.LANCHOR88
	.word	.LC154
	.word	.LC155
	.word	.LANCHOR95
	.word	.LC156
	.word	.LC157
	.word	.LC158
	.word	.LC159
	.word	.LC160
	.size	panic_recover_data, .-panic_recover_data
	.section	.text.torture_block_and_mark,"ax",%progbits
	.align	1
	.global	torture_block_and_mark
	.syntax unified
	.thumb
	.thumb_func
	.fpu softvfp
	.type	torture_block_and_mark, %function
torture_block_and_mark:
	@ args = 0, pretend = 0, frame = 32
	@ frame_needed = 0, uses_anonymous_args = 0
	push	{r4, r5, r6, r7, r8, r10, lr}
	sub	sp, sp, #44
	add	r7, sp, #8
	mov	r4, r0
	mov	r5, r1
	movs	r2, #15
	movs	r1, #0
	mov	r0, r7
	bl	memset
	ldrh	r1, [r5]
	ldr	r0, .L1319
	bl	NAND_Print
	ldr	r3, [r4, #4]
	mov	r0, r4
	ldrh	r1, [r5]
	ldrh	r2, [r3, #28]
	movs	r3, #0
	strh	r3, [sp, #24]	@ movhi
	strh	r1, [sp, #26]	@ movhi
	add	r1, sp, #24
	strd	r3, r3, [sp, #32]
	strh	r2, [sp, #28]	@ movhi
	ldr	r3, [r4, #1980]
	blx	r3
	mov	r6, r0
	cbz	r0, .L1304
	ldrh	r1, [r5]
	ldr	r0, .L1319+4
.L1316:
	bl	NAND_Print
	b	.L1305
.L1304:
	ldrh	r3, [r5, #6]
	movs	r1, #165
	ldr	r0, [r4, #284]
	mov	r8, r6
	adds	r3, r3, #1
	strh	r3, [r5, #6]	@ movhi
	ldr	r3, [r4, #4]
	ldrh	r2, [r3, #26]
	bl	NAND_Memset
	movs	r2, #15
	movs	r1, #165
	mov	r0, r7
	bl	NAND_Memset
.L1307:
	ldr	r3, [r4, #4]
	mov	r0, r4
	ldrh	r1, [r5]
	strh	r8, [sp, #24]	@ movhi
	ldrh	r2, [r3, #28]
	ldr	r3, [r4, #284]
	strh	r1, [sp, #26]	@ movhi
	add	r1, sp, #24
	strh	r2, [sp, #28]	@ movhi
	strd	r3, r7, [sp, #32]
	ldr	r3, [r4, #1988]
	blx	r3
	mov	r6, r0
	cbz	r0, .L1306
	ldrh	r2, [r5]
	mov	r3, r8
	ldr	r1, .L1319+8
	ldr	r0, .L1319+12
.L1317:
	bl	NAND_Print
.L1305:
	ldr	r3, [r4, #2000]
	add	r1, sp, #24
	mov	r0, r4
	blx	r3
	movs	r3, #0
	strh	r3, [r5, #4]	@ movhi
	movs	r3, #255
	strh	r3, [r5, #2]	@ movhi
	ldrh	r3, [r4, #20]
	adds	r3, r3, #1
	strh	r3, [r4, #20]	@ movhi
	b	.L1303
.L1306:
	add	r8, r8, #1
	cmp	r8, #3
	bne	.L1307
	mov	r8, r0
.L1311:
	ldr	r3, [r4, #4]
	movs	r1, #0
	ldr	r0, [r4, #284]
	ldrh	r2, [r3, #26]
	bl	NAND_Memset
	movs	r2, #15
	movs	r1, #0
	mov	r0, r7
	bl	NAND_Memset
	ldr	r3, [r4, #4]
	mov	r0, r4
	ldrh	r1, [r5]
	strh	r8, [sp, #24]	@ movhi
	ldrh	r2, [r3, #28]
	ldr	r3, [r4, #284]
	strh	r1, [sp, #26]	@ movhi
	add	r1, sp, #24
	strh	r2, [sp, #28]	@ movhi
	strd	r3, r7, [sp, #32]
	ldr	r3, [r4, #1984]
	blx	r3
	mov	r6, r0
	cbz	r0, .L1308
	mov	r3, r8
	ldrh	r2, [r5]
	ldr	r1, .L1319+8
	ldr	r0, .L1319+16
	b	.L1317
.L1308:
	ldr	r10, [r4, #4]
	movs	r1, #165
	ldr	r0, [r4, #284]
	ldrh	r2, [r10, #26]
	bl	nftl_check_pattern
	mov	r6, r0
	cbz	r0, .L1309
	ldrh	r2, [r5]
	movs	r3, #165
	ldr	r1, .L1319+8
	ldr	r0, .L1319+20
	str	r3, [sp]
	mov	r3, r8
.L1318:
	bl	NAND_Print
	b	.L1305
.L1309:
	movs	r2, #15
	movs	r1, #165
	mov	r0, r7
	bl	nftl_check_pattern
	mov	r6, r0
	cbz	r0, .L1310
	movs	r3, #165
	ldrh	r2, [r5]
	str	r3, [sp]
	mov	r3, r8
	ldr	r1, .L1319+8
	ldr	r0, .L1319+24
	b	.L1318
.L1310:
	add	r8, r8, #1
	cmp	r8, #3
	bne	.L1311
	ldrh	r3, [r10, #28]
	add	r1, sp, #24
	ldrh	r2, [r5]
	strh	r0, [sp, #24]	@ movhi
	strh	r3, [sp, #28]	@ movhi
	strd	r0, r0, [sp, #32]
	mov	r0, r4
	strh	r2, [sp, #26]	@ movhi
	ldr	r3, [r4, #1980]
	blx	r3
	mov	r6, r0
	cbz	r0, .L1312
	ldrh	r1, [r5]
	ldr	r0, .L1319+28
	b	.L1316
.L1312:
	ldrh	r3, [r5, #6]
	mov	r1, r5
	mov	r0, r4
	adds	r3, r3, #1
	strh	r3, [r5, #6]	@ movhi
	mov	r3, #-1
	str	r3, [r5, #8]
	bl	put_phy_block_to_free_list
	mov	r1, r5
	mov	r0, r4
	bl	mark_free_block
	ldr	r3, [r4, #4]
	ldrh	r3, [r3, #20]
	strh	r6, [r5, #2]	@ movhi
	strh	r3, [r5, #4]	@ movhi
.L1303:
	mov	r0, r6
	add	sp, sp, #44
	@ sp needed
	pop	{r4, r5, r6, r7, r8, r10, pc}
.L1320:
	.align	2
.L1319:
	.word	.LC161
	.word	.LC151
	.word	.LANCHOR96
	.word	.LC162
	.word	.LC163
	.word	.LC164
	.word	.LC165
	.word	.LC166
	.size	torture_block_and_mark, .-torture_block_and_mark
	.section	.text.set_no_use_page,"ax",%progbits
	.align	1
	.global	set_no_use_page
	.syntax unified
	.thumb
	.thumb_func
	.fpu softvfp
	.type	set_no_use_page, %function
set_no_use_page:
	@ args = 0, pretend = 0, frame = 0
	@ frame_needed = 0, uses_anonymous_args = 0
	movs	r3, #255
	push	{r4, lr}
	mov	r4, r1
	strb	r3, [r1]
	movs	r3, #1
	movs	r1, #170
	mov	r2, r3
	mov	r0, r4
	bl	set_spare_data
	movs	r3, #1
	movs	r2, #2
	movs	r1, #187
	pop	{r4, lr}
	b	set_spare_data
	.size	set_no_use_page, .-set_no_use_page
	.section	.text.set_start_block_flag,"ax",%progbits
	.align	1
	.global	set_start_block_flag
	.syntax unified
	.thumb
	.thumb_func
	.fpu softvfp
	.type	set_start_block_flag, %function
set_start_block_flag:
	@ args = 0, pretend = 0, frame = 0
	@ frame_needed = 0, uses_anonymous_args = 0
	movs	r3, #255
	push	{r4, r5, r6, lr}
	mov	r4, r1
	strb	r3, [r1]
	movs	r3, #1
	mov	r5, r2
	mov	r0, r4
	mov	r2, r3
	movs	r1, #170
	bl	set_spare_data
	movs	r3, #1
	movs	r2, #2
	movs	r1, #238
	bl	set_spare_data
	mov	r1, r5
	movs	r3, #4
	movs	r2, #3
	pop	{r4, r5, r6, lr}
	b	set_spare_data
	.size	set_start_block_flag, .-set_start_block_flag
	.section	.text.set_end_block_flag,"ax",%progbits
	.align	1
	.global	set_end_block_flag
	.syntax unified
	.thumb
	.thumb_func
	.fpu softvfp
	.type	set_end_block_flag, %function
set_end_block_flag:
	@ args = 0, pretend = 0, frame = 0
	@ frame_needed = 0, uses_anonymous_args = 0
	movs	r3, #255
	push	{r4, lr}
	mov	r4, r1
	strb	r3, [r1]
	movs	r3, #1
	movs	r1, #170
	mov	r2, r3
	mov	r0, r4
	bl	set_spare_data
	movs	r3, #1
	movs	r2, #2
	movs	r1, #204
	pop	{r4, lr}
	b	set_spare_data
	.size	set_end_block_flag, .-set_end_block_flag
	.section	.text.build_zone_list_first,"ax",%progbits
	.align	1
	.global	build_zone_list_first
	.syntax unified
	.thumb
	.thumb_func
	.fpu softvfp
	.type	build_zone_list_first, %function
build_zone_list_first:
	@ args = 0, pretend = 0, frame = 32
	@ frame_needed = 0, uses_anonymous_args = 0
	push	{r4, r5, r6, r7, r8, r10, lr}
	mov	r4, r0
	sub	sp, sp, #36
	ldr	r0, .L1350
	mov	r10, r1
	bl	NAND_Print_DBG
	ldr	r3, [r4, #24]
	ldr	r5, [r4, #40]
	cmp	r3, #0
	beq	.L1345
	ldr	r6, [r4, #4]
	ldr	r0, [r4, #32]
	ldrb	r1, [r6, #8]	@ zero_extendqisi2
	add	r0, r0, r3
	bl	__aeabi_uidiv
	ldrh	r1, [r6, #20]
	bl	__aeabi_uidiv
	mov	r8, r0
.L1325:
	movs	r7, #0
	strh	r7, [r4, #18]	@ movhi
.L1326:
	ldrh	r3, [r4, #18]
	cmp	r3, r8
	bcs	.L1336
	ldr	r3, [r4, #4]
	mov	r0, r4
	ldrh	r1, [r5]
	str	r5, [r4, #44]
	ldrh	r2, [r3, #28]
	ldr	r3, [r4, #284]
	strh	r1, [sp, #18]	@ movhi
	add	r1, sp, #16
	strh	r7, [sp, #16]	@ movhi
	str	r3, [sp, #24]
	strh	r2, [sp, #20]	@ movhi
	str	sp, [sp, #28]
	ldr	r3, [r4, #1996]
	blx	r3
	cmp	r0, #1
	bne	.L1327
	ldr	r3, [r4, #1980]
	add	r1, sp, #16
	mov	r0, r4
	blx	r3
	mov	r6, r0
	cbz	r0, .L1328
	movs	r3, #255
	add	r1, sp, #16
	strh	r3, [r5, #2]	@ movhi
	mov	r0, r4
	ldr	r3, [r4, #2000]
	blx	r3
.L1329:
	movw	r3, #65535
	str	r7, [r5, #20]
	strh	r3, [r5, #4]	@ movhi
	mov	r1, r4
	strd	r7, r7, [r5, #12]
	mov	r0, r5
	str	r5, [r4, #44]
	bl	is_last_phy_block
	cmp	r0, #1
	bne	.L1332
.L1336:
	ldrh	r1, [r4, #18]
	cmp	r1, #1
	bhi	.L1333
	ldr	r0, .L1350+4
	bl	NAND_Print
	movs	r0, #1
	b	.L1324
.L1345:
	mov	r8, #-1
	b	.L1325
.L1328:
	ldrh	r3, [r4, #18]
	adds	r3, r3, #1
	uxth	r3, r3
	cmp	r3, #1
	strh	r3, [r4, #18]	@ movhi
	strh	r0, [r5, #2]	@ movhi
	strh	r0, [r5, #6]	@ movhi
	bne	.L1329
	movs	r2, #16
	movs	r1, #255
	mov	r0, sp
	bl	NAND_Memset
	mov	r2, r10
	mov	r1, sp
	mov	r0, r4
	bl	set_start_block_flag
	ldr	r3, [r4, #4]
	ldrh	r1, [r5]
	strh	r6, [sp, #16]	@ movhi
	ldrh	r2, [r3, #28]
	ldr	r3, [r4, #284]
	strh	r1, [sp, #18]	@ movhi
	strh	r2, [sp, #20]	@ movhi
	str	r3, [sp, #24]
	str	sp, [sp, #28]
.L1330:
	ldr	r3, [r4, #4]
	ldrh	r3, [r3, #20]
	cmp	r3, r6
	bhi	.L1331
	add	r3, r5, #36
	str	r3, [r4, #40]
	b	.L1329
.L1331:
	ldr	r3, [r4, #1988]
	add	r1, sp, #16
	mov	r0, r4
	adds	r6, r6, #1
	blx	r3
	ldrh	r3, [sp, #16]
	adds	r3, r3, #1
	strh	r3, [sp, #16]	@ movhi
	b	.L1330
.L1327:
	movs	r3, #255
	strh	r3, [r5, #2]	@ movhi
	b	.L1329
.L1332:
	adds	r5, r5, #36
	b	.L1326
.L1333:
	cmp	r8, #-1
	add	r1, r1, #-1
	strh	r1, [r4, #18]	@ movhi
	bne	.L1337
.L1339:
	movs	r0, #0
.L1324:
	add	sp, sp, #36
	@ sp needed
	pop	{r4, r5, r6, r7, r8, r10, pc}
.L1337:
	mov	r1, r4
	mov	r0, r5
	bl	is_last_phy_block
	cmp	r0, #1
	beq	.L1339
	movs	r7, #0
.L1340:
	ldr	r2, [r4, #4]
	ldrh	r3, [r5]
	ldrh	r1, [r2, #24]
	cmp	r1, r3
	bls	.L1339
	ldrh	r1, [r2, #28]
	mov	r0, r4
	ldr	r2, [r4, #284]
	strh	r3, [sp, #18]	@ movhi
	strh	r1, [sp, #20]	@ movhi
	add	r1, sp, #16
	strh	r7, [sp, #16]	@ movhi
	str	r2, [sp, #24]
	str	sp, [sp, #28]
	ldr	r3, [r4, #1996]
	blx	r3
	cmp	r0, #1
	bne	.L1341
	ldr	r3, [r4, #1980]
	add	r1, sp, #16
	mov	r0, r4
	blx	r3
	mov	r6, r0
	cbz	r0, .L1342
	movs	r3, #255
	add	r1, sp, #16
	strh	r3, [r5, #2]	@ movhi
	mov	r0, r4
	ldr	r3, [r4, #2000]
	blx	r3
.L1343:
	adds	r5, r5, #36
	b	.L1340
.L1342:
	movs	r2, #16
	mov	r0, sp
	movs	r1, #255
	bl	NAND_Memset
	mov	r1, sp
	mov	r0, r4
	bl	set_end_block_flag
	ldr	r3, [r4, #4]
	mov	r0, r4
	ldrh	r1, [r5]
	strh	r6, [sp, #16]	@ movhi
	ldrh	r2, [r3, #28]
	ldr	r3, [r4, #284]
	strh	r1, [sp, #18]	@ movhi
	add	r1, sp, #16
	strh	r2, [sp, #20]	@ movhi
	str	r3, [sp, #24]
	str	sp, [sp, #28]
	ldr	r3, [r4, #1988]
	blx	r3
	b	.L1339
.L1341:
	movs	r3, #255
	strh	r3, [r5, #2]	@ movhi
	b	.L1343
.L1351:
	.align	2
.L1350:
	.word	.LC167
	.word	.LC168
	.size	build_zone_list_first, .-build_zone_list_first
	.section	.text.get_bad_flag_from_oob,"ax",%progbits
	.align	1
	.global	get_bad_flag_from_oob
	.syntax unified
	.thumb
	.thumb_func
	.fpu softvfp
	.type	get_bad_flag_from_oob, %function
get_bad_flag_from_oob:
	@ args = 0, pretend = 0, frame = 0
	@ frame_needed = 0, uses_anonymous_args = 0
	push	{r3, lr}
	movs	r2, #4
	movs	r1, #1
	bl	get_spare_data
	adds	r0, r0, #0
	it	ne
	movne	r0, #1
	pop	{r3, pc}
	.size	get_bad_flag_from_oob, .-get_bad_flag_from_oob
	.section	.text.get_block_used_count_from_oob,"ax",%progbits
	.align	1
	.global	get_block_used_count_from_oob
	.syntax unified
	.thumb
	.thumb_func
	.fpu softvfp
	.type	get_block_used_count_from_oob, %function
get_block_used_count_from_oob:
	@ args = 0, pretend = 0, frame = 0
	@ frame_needed = 0, uses_anonymous_args = 0
	@ link register save eliminated.
	movs	r2, #4
	movs	r1, #7
	b	get_spare_data
	.size	get_block_used_count_from_oob, .-get_block_used_count_from_oob
	.section	.text.get_used_block_count,"ax",%progbits
	.align	1
	.global	get_used_block_count
	.syntax unified
	.thumb
	.thumb_func
	.fpu softvfp
	.type	get_used_block_count, %function
get_used_block_count:
	@ args = 0, pretend = 0, frame = 32
	@ frame_needed = 0, uses_anonymous_args = 0
	ldrh	r2, [r1]
	movs	r3, #0
	push	{r4, lr}
	sub	sp, sp, #32
	add	r4, sp, #16
	strh	r3, [sp]	@ movhi
	mov	r1, sp
	strh	r2, [sp, #2]	@ movhi
	strh	r3, [sp, #4]	@ movhi
	str	r3, [sp, #8]
	str	r4, [sp, #12]
	ldr	r3, [r0, #1984]
	blx	r3
	mov	r0, r4
	bl	get_block_used_count_from_oob
	add	sp, sp, #32
	@ sp needed
	pop	{r4, pc}
	.size	get_used_block_count, .-get_used_block_count
	.section	.text.get_logic_page_from_oob,"ax",%progbits
	.align	1
	.global	get_logic_page_from_oob
	.syntax unified
	.thumb
	.thumb_func
	.fpu softvfp
	.type	get_logic_page_from_oob, %function
get_logic_page_from_oob:
	@ args = 0, pretend = 0, frame = 0
	@ frame_needed = 0, uses_anonymous_args = 0
	push	{r3, lr}
	movs	r2, #4
	movs	r1, #1
	bl	get_spare_data
	bic	r0, r0, #-268435456
	pop	{r3, pc}
	.size	get_logic_page_from_oob, .-get_logic_page_from_oob
	.section	.text._nftl_nand_read_logic_history_page,"ax",%progbits
	.align	1
	.global	_nftl_nand_read_logic_history_page
	.syntax unified
	.thumb
	.thumb_func
	.fpu softvfp
	.type	_nftl_nand_read_logic_history_page, %function
_nftl_nand_read_logic_history_page:
	@ args = 0, pretend = 0, frame = 56
	@ frame_needed = 0, uses_anonymous_args = 0
	push	{r4, r5, r6, r7, r8, r10, fp, lr}
	sub	sp, sp, #56
	movs	r2, #16
	mov	r5, r0
	add	r0, sp, #24
	str	r1, [sp, #16]
	movs	r1, #0
	bl	memset
	ldr	r3, [r5, #4]
	ldrb	r6, [r3, #8]	@ zero_extendqisi2
	lsls	r6, r6, #9
	mov	r0, r6
	bl	nftl_malloc
	mov	r8, r0
	mov	r0, r6
	bl	nftl_malloc
	mov	fp, r0
	cmp	r8, #0
	bne	.L1357
.L1374:
	ldr	r1, .L1375
	ldr	r0, .L1375+4
	bl	NAND_Print
	movs	r0, #1
.L1356:
	add	sp, sp, #56
	@ sp needed
	pop	{r4, r5, r6, r7, r8, r10, fp, pc}
.L1357:
	cbnz	r0, .L1359
	mov	r0, r8
	bl	nftl_free
	b	.L1374
.L1359:
	ldrh	r2, [r5, #18]
	movs	r1, #0
	ldrh	r3, [r5, #20]
	mov	r0, r8
	mov	r10, #0
	mov	r7, r10
	adds	r3, r2, r3
	mov	r2, r6
	str	r3, [sp, #8]
	bl	NAND_Memset
	mov	r2, r6
	movs	r1, #0
	mov	r0, fp
	bl	NAND_Memset
	movs	r2, #16
	movs	r1, #0
	add	r0, sp, #24
	bl	NAND_Memset
	lsrs	r3, r6, #9
	str	r3, [sp, #20]
.L1360:
	ldr	r3, [sp, #8]
	cmp	r3, r7
	bne	.L1368
	mov	r1, r3
	ldr	r0, .L1375+8
	bl	NAND_Print
	mov	r0, r8
	bl	nftl_free
	mov	r0, fp
	bl	nftl_free
	movs	r0, #0
	b	.L1356
.L1368:
	mov	r1, r7
	ldr	r0, .L1375+12
	bl	NAND_Print
	uxth	r3, r7
	movs	r4, #0
	strh	r4, [sp, #40]	@ movhi
	add	r1, sp, #40
	str	r3, [sp, #4]
	mov	r0, r5
	ldrh	r3, [sp, #4]
	strh	r4, [sp, #44]	@ movhi
	str	r4, [sp, #48]
	strh	r3, [sp, #42]	@ movhi
	add	r3, sp, #24
	str	r3, [sp, #52]
	ldr	r3, [r5, #1996]
	blx	r3
	cmp	r0, #1
	beq	.L1361
	mov	r1, r7
	ldr	r0, .L1375+16
	bl	NAND_Print
.L1362:
	adds	r7, r7, #1
	b	.L1360
.L1367:
	movs	r2, #16
	movs	r1, #0
	add	r0, sp, #24
	bl	NAND_Memset
	uxth	r3, r4
	add	r1, sp, #40
	mov	r0, r5
	str	r3, [sp, #12]
	ldrh	r3, [sp, #12]
	strh	r3, [sp, #40]	@ movhi
	ldrh	r3, [sp, #4]
	strh	r3, [sp, #42]	@ movhi
	movs	r3, #0
	strh	r3, [sp, #44]	@ movhi
	str	r3, [sp, #48]
	add	r3, sp, #24
	str	r3, [sp, #52]
	ldr	r3, [r5, #1984]
	blx	r3
	adds	r0, r0, #2
	bne	.L1363
	ldr	r0, .L1375+20
	mov	r2, r4
	mov	r1, r7
.L1373:
	bl	NAND_Print
.L1364:
	adds	r4, r4, #1
.L1361:
	ldr	r3, [r5, #4]
	ldrh	r3, [r3, #20]
	cmp	r3, r4
	bgt	.L1367
	b	.L1362
.L1363:
	add	r0, sp, #24
	bl	get_logic_page_from_oob
	ldr	r3, [sp, #16]
	cmp	r0, r3
	bne	.L1364
	ldrh	r3, [sp, #12]
	add	r1, sp, #40
	str	r8, [sp, #48]
	mov	r0, r5
	strh	r3, [sp, #40]	@ movhi
	ldrh	r3, [sp, #4]
	strh	r3, [sp, #42]	@ movhi
	ldrh	r3, [sp, #20]
	strh	r3, [sp, #44]	@ movhi
	add	r3, sp, #24
	str	r3, [sp, #52]
	ldr	r3, [r5, #1984]
	blx	r3
	adds	r0, r0, #2
	bne	.L1365
	mov	r2, r4
	mov	r1, r7
	ldr	r0, .L1375+24
	b	.L1373
.L1365:
	add	r3, r10, #1
	str	r3, [sp, #12]
	cmp	r10, #0
	beq	.L1366
	mov	r2, r10
	ldr	r1, [sp, #16]
	ldr	r0, .L1375+28
	bl	NAND_Print
	mov	r1, r6
	mov	r0, fp
	bl	dumphex
	ldr	r0, .L1375+32
	bl	NAND_Print
	movs	r1, #16
	add	r0, sp, #24
	bl	dumphex
.L1366:
	mov	r2, r6
	mov	r1, r8
	mov	r0, fp
	bl	NAND_Memcpy
	ldr	r10, [sp, #12]
	b	.L1364
.L1376:
	.align	2
.L1375:
	.word	.LANCHOR97
	.word	.LC169
	.word	.LC176
	.word	.LC170
	.word	.LC171
	.word	.LC172
	.word	.LC173
	.word	.LC174
	.word	.LC175
	.size	_nftl_nand_read_logic_history_page, .-_nftl_nand_read_logic_history_page
	.section	.text._nand_read_history,"ax",%progbits
	.align	1
	.global	_nand_read_history
	.syntax unified
	.thumb
	.thumb_func
	.fpu softvfp
	.type	_nand_read_history, %function
_nand_read_history:
	@ args = 0, pretend = 0, frame = 0
	@ frame_needed = 0, uses_anonymous_args = 0
	push	{r4, r5, r6, lr}
	mov	r6, r3
	ldr	r4, [r0, #12]
	add	r2, r2, r1
	mov	r5, r1
	ldr	r3, [r4, #24]
	cmp	r2, r3
	bhi	.L1381
	ldr	r3, [r4, #4]
	mov	r0, r5
	ldrb	r1, [r3, #8]	@ zero_extendqisi2
	bl	__aeabi_uidiv
	mov	r2, r6
	mov	r1, r0
	mov	r0, r4
	pop	{r4, r5, r6, lr}
	b	_nftl_nand_read_logic_history_page
.L1381:
	ldr	r0, .L1382
	bl	NAND_Print
	movs	r0, #1
	pop	{r4, r5, r6, pc}
.L1383:
	.align	2
.L1382:
	.word	.LC177
	.size	_nand_read_history, .-_nand_read_history
	.section	.text.get_special_data_from_oob,"ax",%progbits
	.align	1
	.global	get_special_data_from_oob
	.syntax unified
	.thumb
	.thumb_func
	.fpu softvfp
	.type	get_special_data_from_oob, %function
get_special_data_from_oob:
	@ args = 0, pretend = 0, frame = 0
	@ frame_needed = 0, uses_anonymous_args = 0
	@ link register save eliminated.
	movs	r2, #4
	movs	r1, #1
	b	get_spare_data
	.size	get_special_data_from_oob, .-get_special_data_from_oob
	.section	.text._nftl_nand_copy_page,"ax",%progbits
	.align	1
	.global	_nftl_nand_copy_page
	.syntax unified
	.thumb
	.thumb_func
	.fpu softvfp
	.type	_nftl_nand_copy_page, %function
_nftl_nand_copy_page:
	@ args = 4, pretend = 0, frame = 48
	@ frame_needed = 0, uses_anonymous_args = 0
	push	{r4, r5, r6, r7, r8, lr}
	sub	sp, sp, #56
	mov	r8, r2
	ldrh	r2, [sp, #80]
	mov	r6, r1
	add	r5, sp, #8
	ldrh	r1, [r1]
	mov	r4, r0
	strh	r2, [sp, #24]	@ movhi
	strh	r2, [sp, #40]	@ movhi
	ldr	r2, [r0, #4]
	strh	r1, [sp, #26]	@ movhi
	ldrh	r1, [r8]
	ldrh	r2, [r2, #28]
	str	r3, [sp, #32]
	strh	r1, [sp, #42]	@ movhi
	add	r1, sp, #24
	strh	r2, [sp, #28]	@ movhi
	strh	r2, [sp, #44]	@ movhi
	str	r3, [sp, #48]
	str	r5, [sp, #36]
	ldr	r3, [r0, #1984]
	str	r5, [sp, #52]
	blx	r3
	cmp	r0, #10
	ite	ne
	movne	r7, r0
	moveq	r7, #0
	mov	r0, r5
	bl	get_special_data_from_oob
	ldrh	r3, [r8, #6]
	mov	r2, r0
	mov	r1, r5
	mov	r0, r4
	adds	r3, r3, #1
	uxth	r3, r3
	str	r3, [sp]
	ldr	r3, [r6, #8]
	bl	set_oob_special_page
	ldr	r3, [r4, #1988]
	add	r1, sp, #40
	mov	r0, r4
	blx	r3
	orr	r0, r7, r0, lsl #8
	add	sp, sp, #56
	@ sp needed
	pop	{r4, r5, r6, r7, r8, pc}
	.size	_nftl_nand_copy_page, .-_nftl_nand_copy_page
	.section	.text.get_erase_count_from_oob,"ax",%progbits
	.align	1
	.global	get_erase_count_from_oob
	.syntax unified
	.thumb
	.thumb_func
	.fpu softvfp
	.type	get_erase_count_from_oob, %function
get_erase_count_from_oob:
	@ args = 0, pretend = 0, frame = 0
	@ frame_needed = 0, uses_anonymous_args = 0
	push	{r3, lr}
	movs	r2, #2
	movs	r1, #5
	bl	get_spare_data
	uxth	r0, r0
	pop	{r3, pc}
	.size	get_erase_count_from_oob, .-get_erase_count_from_oob
	.section	.text.is_ftl_start_flag_page,"ax",%progbits
	.align	1
	.global	is_ftl_start_flag_page
	.syntax unified
	.thumb
	.thumb_func
	.fpu softvfp
	.type	is_ftl_start_flag_page, %function
is_ftl_start_flag_page:
	@ args = 0, pretend = 0, frame = 0
	@ frame_needed = 0, uses_anonymous_args = 0
	@ link register save eliminated.
	ldrb	r3, [r0, #1]	@ zero_extendqisi2
	cmp	r3, #170
	bne	.L1390
	ldrb	r0, [r0, #2]	@ zero_extendqisi2
	sub	r3, r0, #238
	rsbs	r0, r3, #0
	adcs	r0, r0, r3
	bx	lr
.L1390:
	movs	r0, #0
	bx	lr
	.size	is_ftl_start_flag_page, .-is_ftl_start_flag_page
	.section	.text.is_no_use_device,"ax",%progbits
	.align	1
	.global	is_no_use_device
	.syntax unified
	.thumb
	.thumb_func
	.fpu softvfp
	.type	is_no_use_device, %function
is_no_use_device:
	@ args = 0, pretend = 0, frame = 32
	@ frame_needed = 0, uses_anonymous_args = 0
	ldr	r3, [r0, #24]
	push	{r4, r5, r6, r7, r8, lr}
	mov	r4, r0
	sub	sp, sp, #32
	mov	r6, r1
	ldr	r5, [r0, #40]
	cmp	r3, #0
	beq	.L1401
	ldr	r7, [r0, #4]
	ldr	r0, [r0, #32]
	ldrb	r1, [r7, #8]	@ zero_extendqisi2
	add	r0, r0, r3
	bl	__aeabi_uidiv
	ldrh	r1, [r7, #20]
	bl	__aeabi_uidiv
	mov	r7, r0
.L1392:
	movs	r3, #0
	mov	r8, r3
	strh	r3, [r4, #18]	@ movhi
.L1393:
	ldrh	r3, [r4, #18]
	cmp	r3, r7
	bcs	.L1408
	ldr	r3, [r4, #4]
	mov	r0, r4
	ldrh	r1, [r5]
	str	r5, [r4, #44]
	ldrh	r2, [r3, #28]
	ldr	r3, [r4, #284]
	strh	r1, [sp, #18]	@ movhi
	add	r1, sp, #16
	strh	r8, [sp, #16]	@ movhi
	str	r3, [sp, #24]
	strh	r2, [sp, #20]	@ movhi
	str	sp, [sp, #28]
	ldr	r3, [r4, #1996]
	blx	r3
	cmp	r0, #1
	bne	.L1394
	ldr	r3, [r4, #1984]
	add	r1, sp, #16
	mov	r0, r4
	blx	r3
	mov	r2, r0
	mov	r0, sp
	bl	is_ftl_start_flag_page
	cmp	r0, #1
	beq	.L1395
.L1408:
	movs	r0, #1
.L1391:
	add	sp, sp, #32
	@ sp needed
	pop	{r4, r5, r6, r7, r8, pc}
.L1401:
	mov	r7, #-1
	b	.L1392
.L1395:
	cbz	r2, .L1397
	cmp	r2, #10
	bne	.L1408
.L1397:
	movs	r2, #4
	movs	r1, #3
	mov	r0, sp
	bl	get_spare_data
	cmp	r0, r6
	beq	.L1399
	ldr	r0, .L1409
	bl	NAND_Print
	b	.L1408
.L1399:
	adds	r5, r5, #36
	movs	r0, #0
	str	r5, [r4, #40]
	b	.L1391
.L1394:
	movs	r3, #255
	mov	r1, r4
	strh	r3, [r5, #2]	@ movhi
	mov	r0, r5
	ldrh	r3, [r4, #18]
	adds	r3, r3, #1
	strh	r3, [r4, #18]	@ movhi
	bl	is_last_phy_block
	cmp	r0, #1
	beq	.L1408
	adds	r5, r5, #36
	b	.L1393
.L1410:
	.align	2
.L1409:
	.word	.LC178
	.size	is_no_use_device, .-is_no_use_device
	.section	.text.is_ftl_end_flag_page,"ax",%progbits
	.align	1
	.global	is_ftl_end_flag_page
	.syntax unified
	.thumb
	.thumb_func
	.fpu softvfp
	.type	is_ftl_end_flag_page, %function
is_ftl_end_flag_page:
	@ args = 0, pretend = 0, frame = 0
	@ frame_needed = 0, uses_anonymous_args = 0
	@ link register save eliminated.
	ldrb	r3, [r0, #1]	@ zero_extendqisi2
	cmp	r3, #170
	bne	.L1413
	ldrb	r0, [r0, #2]	@ zero_extendqisi2
	sub	r3, r0, #204
	rsbs	r0, r3, #0
	adcs	r0, r0, r3
	bx	lr
.L1413:
	movs	r0, #0
	bx	lr
	.size	is_ftl_end_flag_page, .-is_ftl_end_flag_page
	.section	.text.is_ftl_special_data,"ax",%progbits
	.align	1
	.global	is_ftl_special_data
	.syntax unified
	.thumb
	.thumb_func
	.fpu softvfp
	.type	is_ftl_special_data, %function
is_ftl_special_data:
	@ args = 0, pretend = 0, frame = 0
	@ frame_needed = 0, uses_anonymous_args = 0
	@ link register save eliminated.
	ldrb	r0, [r0, #1]	@ zero_extendqisi2
	sub	r3, r0, #170
	rsbs	r0, r3, #0
	adcs	r0, r0, r3
	bx	lr
	.size	is_ftl_special_data, .-is_ftl_special_data
	.section	.text.is_ftl_logic_page_data,"ax",%progbits
	.align	1
	.global	is_ftl_logic_page_data
	.syntax unified
	.thumb
	.thumb_func
	.fpu softvfp
	.type	is_ftl_logic_page_data, %function
is_ftl_logic_page_data:
	@ args = 0, pretend = 0, frame = 0
	@ frame_needed = 0, uses_anonymous_args = 0
	@ link register save eliminated.
	ldrb	r0, [r0, #1]	@ zero_extendqisi2
	and	r0, r0, #240
	sub	r3, r0, #192
	rsbs	r0, r3, #0
	adcs	r0, r0, r3
	bx	lr
	.size	is_ftl_logic_page_data, .-is_ftl_logic_page_data
	.section	.text.is_nouse_page,"ax",%progbits
	.align	1
	.global	is_nouse_page
	.syntax unified
	.thumb
	.thumb_func
	.fpu softvfp
	.type	is_nouse_page, %function
is_nouse_page:
	@ args = 0, pretend = 0, frame = 0
	@ frame_needed = 0, uses_anonymous_args = 0
	subs	r2, r0, #1
	add	r1, r0, #9
	movs	r3, #0
	push	{r4, lr}
.L1418:
	ldrb	r4, [r2, #1]!	@ zero_extendqisi2
	cmp	r4, #255
	it	eq
	addeq	r3, r3, #1
	cmp	r2, r1
	bne	.L1418
	cmp	r3, #8
	bls	.L1420
	ldrb	r0, [r0]	@ zero_extendqisi2
	sub	r3, r0, #255
	rsbs	r0, r3, #0
	adcs	r0, r0, r3
.L1416:
	pop	{r4, pc}
.L1420:
	movs	r0, #0
	b	.L1416
	.size	is_nouse_page, .-is_nouse_page
	.section	.text.sandisk_A19_read_page_end,"ax",%progbits
	.align	1
	.global	sandisk_A19_read_page_end
	.syntax unified
	.thumb
	.thumb_func
	.fpu softvfp
	.type	sandisk_A19_read_page_end, %function
sandisk_A19_read_page_end:
	@ args = 0, pretend = 0, frame = 0
	@ frame_needed = 0, uses_anonymous_args = 0
	ldr	r3, .L1470
	push	{r0, r1, r4, r5, r6, r7, r8, r10, fp, lr}
	mov	r4, r0
	ldr	r1, [r0]
	ldr	r0, [r3]
	bl	nci_get_from_nsi
	mov	r5, r0
	mov	r0, r4
	bl	generic_read_page_end_not_retry
	adds	r3, r0, #2
	mov	r6, r0
	bne	.L1422
	ldr	r8, .L1470+28
	movs	r7, #0
	ldr	r0, .L1470+4
	bl	NAND_Print_DBG
	mov	r10, r8
.L1424:
	ldrb	r3, [r8]	@ zero_extendqisi2
	cmp	r3, r7
	bgt	.L1430
	ldr	r7, .L1470+8
	ldrb	r3, [r7]	@ zero_extendqisi2
	cmp	r3, #51
	beq	.L1431
	ldr	fp, .L1470+12
	mov	r8, #0
.L1432:
	ldrb	r3, [r10]	@ zero_extendqisi2
	cmp	r3, r8
	bgt	.L1438
	ldr	fp, .L1470+12
	mov	r8, #0
.L1439:
	ldrb	r3, [r10]	@ zero_extendqisi2
	cmp	r3, r8
	bgt	.L1445
.L1431:
	ldr	fp, .L1470+12
	mov	r8, #0
.L1446:
	ldrb	r3, [r10]	@ zero_extendqisi2
	cmp	r3, r8
	bgt	.L1460
.L1461:
	movs	r3, #0
	mov	r0, r5
	str	r3, [r5, #176]
	bl	sandisk_A19_exit_readretry
.L1422:
	mov	r0, r6
	add	sp, sp, #8
	@ sp needed
	pop	{r4, r5, r6, r7, r8, r10, fp, pc}
.L1430:
	str	r7, [r5, #176]
	mov	r0, r5
	ldrh	r1, [r4, #8]
	bl	sandisk_A19_set_readretry
	mov	r6, r0
	cbz	r0, .L1425
	ldr	r0, .L1470+12
	bl	NAND_Print_DBG
.L1426:
	adds	r7, r7, #1
	b	.L1424
.L1425:
	mov	r0, r4
	bl	generic_read_page_start
	mov	r6, r0
	mov	r0, r4
	bl	generic_read_page_end_not_retry
	orrs	r6, r6, r0
	ldr	r0, [r4, #20]
	bl	is_nouse_page
	cmp	r0, #1
	bne	.L1427
	ldr	r3, [r5, #176]
	mvn	r6, #1
	ldr	r1, [r5, #268]
	ldr	r0, .L1470+16
	str	r3, [sp, #4]
	ldr	r3, [r4, #8]
	str	r3, [sp]
	ldr	r3, [r4, #4]
	ldr	r2, [r5, #20]
	ldr	r1, [r1, #8]
	bl	NAND_Print_DBG
	b	.L1426
.L1427:
	cmp	r6, #10
	beq	.L1458
	cmp	r6, #0
	bne	.L1426
.L1459:
	ldr	r3, [r5, #176]
	movs	r6, #10
	ldr	r1, [r5, #268]
	ldr	r0, .L1470+20
	str	r3, [sp, #4]
	ldr	r3, [r4, #8]
	str	r3, [sp]
	ldr	r3, [r4, #4]
	ldr	r2, [r5, #20]
	ldr	r1, [r1, #8]
	bl	NAND_Print_DBG
	b	.L1461
.L1438:
	str	r8, [r5, #176]
	mov	r0, r5
	ldrh	r1, [r4, #8]
	bl	sandisk_A19_set_readretry
	mov	r6, r0
	cbz	r0, .L1433
	mov	r0, fp
	bl	NAND_Print_DBG
.L1434:
	add	r8, r8, #1
	b	.L1432
.L1433:
	mov	r0, r4
	bl	sandisk_A19_dsp_on
	mov	r0, r4
	bl	generic_read_page_start
	mov	r6, r0
	mov	r0, r4
	bl	generic_read_page_end_not_retry
	orrs	r6, r6, r0
	ldr	r0, [r4, #20]
	bl	is_nouse_page
	cmp	r0, #1
	bne	.L1435
	ldr	r3, [r5, #176]
	mvn	r6, #1
	ldr	r1, [r5, #268]
	ldr	r0, .L1470+16
	str	r3, [sp, #4]
	ldr	r3, [r4, #8]
	str	r3, [sp]
	ldr	r3, [r4, #4]
	ldr	r2, [r5, #20]
	ldr	r1, [r1, #8]
	bl	NAND_Print_DBG
	b	.L1434
.L1435:
	cmp	r6, #10
	beq	.L1458
	cmp	r6, #0
	bne	.L1434
	b	.L1459
.L1445:
	str	r8, [r5, #176]
	mov	r0, r5
	ldrh	r1, [r4, #8]
	bl	sandisk_A19_set_readretry
	mov	r6, r0
	cbz	r0, .L1440
	mov	r0, fp
	bl	NAND_Print_DBG
.L1441:
	add	r8, r8, #1
	b	.L1439
.L1440:
	mov	r0, r4
	bl	sandisk_A19_cmd25
	mov	r0, r4
	bl	generic_read_page_start
	mov	r6, r0
	mov	r0, r4
	bl	generic_read_page_end_not_retry
	orrs	r6, r6, r0
	ldr	r0, [r4, #20]
	bl	is_nouse_page
	cmp	r0, #1
	bne	.L1442
	ldr	r3, [r5, #176]
	mvn	r6, #1
	ldr	r1, [r5, #268]
	ldr	r0, .L1470+16
	str	r3, [sp, #4]
	ldr	r3, [r4, #8]
	str	r3, [sp]
	ldr	r3, [r4, #4]
	ldr	r2, [r5, #20]
	ldr	r1, [r1, #8]
	bl	NAND_Print_DBG
	b	.L1441
.L1442:
	cmp	r6, #10
	beq	.L1458
	cmp	r6, #0
	bne	.L1441
	b	.L1459
.L1460:
	str	r8, [r5, #176]
	mov	r0, r5
	ldrh	r1, [r4, #8]
	bl	sandisk_A19_set_readretry
	mov	r6, r0
	cbz	r0, .L1447
	mov	r0, fp
	bl	NAND_Print_DBG
.L1448:
	add	r8, r8, #1
	b	.L1446
.L1447:
	ldrb	r3, [r7]	@ zero_extendqisi2
	cmp	r3, #52
	bne	.L1449
	movs	r1, #198
.L1468:
	mov	r0, r4
	bl	sandisk_A19_set_lmflgfix_next
	mov	r0, r4
	bl	sandisk_A19_cmd25
	ldrb	r3, [r7]	@ zero_extendqisi2
	cmp	r3, #50
	beq	.L1452
	subs	r3, r3, #52
	cmp	r3, #1
	bhi	.L1453
.L1452:
	mov	r0, r4
	bl	sandisk_A19_dsp_on
.L1453:
	mov	r0, r4
	bl	generic_read_page_start
	mov	r6, r0
	mov	r0, r4
	bl	generic_read_page_end_not_retry
	ldrb	r3, [r7]	@ zero_extendqisi2
	orrs	r6, r6, r0
	cmp	r3, #52
	bne	.L1454
	movs	r1, #194
.L1469:
	mov	r0, r4
	bl	sandisk_A19_set_lmflgfix_next
	ldr	r0, [r4, #20]
	bl	is_nouse_page
	cmp	r0, #1
	bne	.L1457
	ldr	r3, [r5, #176]
	mvn	r6, #1
	ldr	r1, [r5, #268]
	ldr	r0, .L1470+16
	str	r3, [sp, #4]
	ldr	r3, [r4, #8]
	str	r3, [sp]
	ldr	r3, [r4, #4]
	ldr	r2, [r5, #20]
	ldr	r1, [r1, #8]
	bl	NAND_Print_DBG
	b	.L1448
.L1449:
	cmp	r3, #53
	ite	eq
	moveq	r1, #26
	movne	r1, #192
	b	.L1468
.L1454:
	cmp	r3, #53
	ite	eq
	moveq	r1, #10
	movne	r1, #64
	b	.L1469
.L1457:
	cmp	r6, #10
	beq	.L1458
	cmp	r6, #0
	bne	.L1448
	b	.L1459
.L1458:
	ldr	r3, [r5, #176]
	ldr	r1, [r5, #268]
	ldr	r0, .L1470+24
	str	r3, [sp, #4]
	ldr	r3, [r4, #8]
	str	r3, [sp]
	ldr	r3, [r4, #4]
	ldr	r2, [r5, #20]
	ldr	r1, [r1, #8]
	bl	NAND_Print_DBG
	b	.L1461
.L1471:
	.align	2
.L1470:
	.word	g_nsi
	.word	.LC179
	.word	.LANCHOR1
	.word	.LC180
	.word	.LC181
	.word	.LC182
	.word	.LC183
	.word	.LANCHOR2
	.size	sandisk_A19_read_page_end, .-sandisk_A19_read_page_end
	.section	.text.hynix20nm_read_page_end,"ax",%progbits
	.align	1
	.global	hynix20nm_read_page_end
	.syntax unified
	.thumb
	.thumb_func
	.fpu softvfp
	.type	hynix20nm_read_page_end, %function
hynix20nm_read_page_end:
	@ args = 0, pretend = 0, frame = 0
	@ frame_needed = 0, uses_anonymous_args = 0
	ldr	r3, .L1488
	push	{r0, r1, r4, r5, r6, r7, r8, r10, fp, lr}
	mov	r6, r0
	ldr	r1, [r0]
	ldr	r0, [r3]
	bl	nci_get_from_nsi
	mov	r5, r0
	mov	r0, r6
	bl	generic_read_page_end_not_retry
	adds	r3, r0, #2
	mov	r4, r0
	bne	.L1472
	ldr	r8, .L1488+16
	movs	r7, #0
	ldr	r10, .L1488+20
	ldr	r0, .L1488+4
	bl	NAND_Print_DBG
.L1474:
	ldrb	r2, [r8]	@ zero_extendqisi2
	cmp	r2, r7
	ble	.L1478
	ldr	r3, [r5, #176]
	mov	r0, r5
	adds	r3, r3, #1
	cmp	r3, r2
	it	hi
	movhi	r3, #0
	str	r3, [r5, #176]
	bl	hynix20nm_set_readretry
	mov	r4, r0
	cbz	r0, .L1477
	movs	r3, #0
	mov	r0, r5
	str	r3, [r5, #176]
	bl	hynix20nm_set_readretry
.L1478:
	movs	r3, #0
	mov	r0, r5
	str	r3, [r5, #176]
	bl	hynix20nm_set_readretry
.L1472:
	mov	r0, r4
	add	sp, sp, #8
	@ sp needed
	pop	{r4, r5, r6, r7, r8, r10, fp, pc}
.L1477:
	mov	r0, r6
	bl	generic_read_page_start
	mov	r4, r0
	mov	r0, r6
	bl	generic_read_page_end_not_retry
	ldr	fp, [r6, #20]
	orrs	r4, r4, r0
	mov	r0, fp
	bl	is_nouse_page
	cmp	r0, #1
	bne	.L1479
	ldr	r3, [r5, #176]
	mvn	r4, #1
	ldr	r1, [r5, #268]
	mov	r0, r10
	str	r3, [sp, #4]
	ldr	r3, [r6, #8]
	str	r3, [sp]
	ldr	r3, [r6, #4]
	ldr	r2, [r5, #20]
	ldr	r1, [r1, #8]
	bl	NAND_Print_DBG
.L1480:
	adds	r7, r7, #1
	b	.L1474
.L1479:
	cmp	r4, #10
	bne	.L1481
.L1482:
	ldrb	r0, [fp, #4]	@ zero_extendqisi2
	movs	r4, #10
	ldrb	r3, [fp, #3]	@ zero_extendqisi2
	ldrb	r2, [fp, #2]	@ zero_extendqisi2
	ldrb	r1, [fp, #1]	@ zero_extendqisi2
	str	r0, [sp]
	ldr	r0, .L1488+8
	bl	NAND_Print_DBG
	ldr	r3, [r5, #176]
	ldr	r1, [r5, #268]
	ldr	r0, .L1488+12
	str	r3, [sp, #4]
	ldr	r3, [r6, #8]
	str	r3, [sp]
	ldr	r3, [r6, #4]
	ldr	r2, [r5, #20]
	ldr	r1, [r1, #8]
	bl	NAND_Print_DBG
	b	.L1478
.L1481:
	cmp	r4, #0
	bne	.L1480
	b	.L1482
.L1489:
	.align	2
.L1488:
	.word	g_nsi
	.word	.LC184
	.word	.LC185
	.word	.LC186
	.word	.LANCHOR12
	.word	.LC181
	.size	hynix20nm_read_page_end, .-hynix20nm_read_page_end
	.section	.text.sandisk_read_page_end,"ax",%progbits
	.align	1
	.global	sandisk_read_page_end
	.syntax unified
	.thumb
	.thumb_func
	.fpu softvfp
	.type	sandisk_read_page_end, %function
sandisk_read_page_end:
	@ args = 0, pretend = 0, frame = 0
	@ frame_needed = 0, uses_anonymous_args = 0
	ldr	r3, .L1501
	push	{r0, r1, r2, r4, r5, r6, r7, r8, r10, lr}
	mov	r6, r0
	ldr	r1, [r0]
	ldr	r0, [r3]
	bl	nci_get_from_nsi
	mov	r5, r0
	mov	r0, r6
	bl	generic_read_page_end_not_retry
	adds	r3, r0, #2
	mov	r4, r0
	bne	.L1490
	ldr	r8, .L1501+12
	movs	r7, #0
	ldr	r10, .L1501+16
	ldr	r0, .L1501+4
	bl	NAND_Print_DBG
.L1492:
	ldrb	r3, [r8]	@ zero_extendqisi2
	cmp	r3, r7
	ble	.L1496
	str	r7, [r5, #176]
	mov	r0, r5
	ldrh	r1, [r6, #8]
	bl	sandisk_set_readretry
	mov	r4, r0
	cbnz	r0, .L1493
	mov	r0, r6
	bl	generic_read_page_start
	mov	r4, r0
	mov	r0, r6
	bl	generic_read_page_end_not_retry
	orrs	r4, r4, r0
	mov	r0, r5
	bl	sandisk_end_one_read_retry
	ldr	r0, [r6, #20]
	bl	is_nouse_page
	cmp	r0, #1
	bne	.L1494
	ldr	r3, [r5, #176]
	mvn	r4, #1
	ldr	r1, [r5, #268]
	mov	r0, r10
	str	r3, [sp, #4]
	ldr	r3, [r6, #8]
	str	r3, [sp]
	ldr	r3, [r6, #4]
	ldr	r2, [r5, #20]
	ldr	r1, [r1, #8]
	bl	NAND_Print_DBG
.L1493:
	adds	r7, r7, #1
	b	.L1492
.L1494:
	cmp	r4, #10
	beq	.L1495
	cmp	r4, #0
	bne	.L1493
.L1495:
	ldr	r3, [r5, #176]
	movs	r4, #10
	ldr	r1, [r5, #268]
	ldr	r0, .L1501+8
	str	r3, [sp, #4]
	ldr	r3, [r6, #8]
	str	r3, [sp]
	ldr	r3, [r6, #4]
	ldr	r2, [r5, #20]
	ldr	r1, [r1, #8]
	bl	NAND_Print_DBG
.L1496:
	movs	r3, #0
	mov	r0, r5
	str	r3, [r5, #176]
	bl	sandisk_exit_readretry
.L1490:
	mov	r0, r4
	add	sp, sp, #12
	@ sp needed
	pop	{r4, r5, r6, r7, r8, r10, pc}
.L1502:
	.align	2
.L1501:
	.word	g_nsi
	.word	.LC187
	.word	.LC188
	.word	.LANCHOR69
	.word	.LC181
	.size	sandisk_read_page_end, .-sandisk_read_page_end
	.section	.text.block_last_page_ecc_error,"ax",%progbits
	.align	1
	.global	block_last_page_ecc_error
	.syntax unified
	.thumb
	.thumb_func
	.fpu softvfp
	.type	block_last_page_ecc_error, %function
block_last_page_ecc_error:
	@ args = 0, pretend = 0, frame = 32
	@ frame_needed = 0, uses_anonymous_args = 0
	push	{r4, r5, r6, r7, r8, r10, fp, lr}
	mov	r10, r0
	sub	sp, sp, #32
	ldr	r0, .L1535
	mov	r4, r1
	bl	NAND_Print
	mov	r0, #4096
	bl	NAND_Malloc
	mov	r5, r0
	cbnz	r0, .L1504
	ldr	r1, .L1535+4
	ldr	r0, .L1535+8
	bl	NAND_Print
.L1504:
	ldr	r7, .L1535+4
	movs	r6, #0
	ldr	r8, .L1535+28
.L1505:
	ldr	r2, [r10, #4]
	ldrh	r1, [r2, #20]
	cmp	r1, r6
	bgt	.L1507
	movs	r6, #0
	mov	r7, r6
.L1508:
	ldr	r2, [r10, #4]
	uxth	r8, r7
	ldrh	ip, [r4]
	ldr	r1, [r10, #284]
	ldrh	r0, [r2, #28]
	ldrh	r2, [r2, #20]
	cmp	r2, r7
	ble	.L1520
	strh	ip, [sp, #18]	@ movhi
	strh	r0, [sp, #20]	@ movhi
	mov	r0, r10
	str	r1, [sp, #24]
	add	r1, sp, #16
	ldr	r2, [r10, #1984]
	strh	r8, [sp, #16]	@ movhi
	str	sp, [sp, #28]
	blx	r2
	mov	fp, r0
	mov	r0, sp
	bl	is_nouse_page
	cmp	r0, #1
	bne	.L1509
.L1520:
	ldr	r2, [r10, #4]
	ldrh	r0, [r4]
	strh	r8, [sp, #16]	@ movhi
	ldrh	r1, [r2, #28]
	ldr	r2, [r10, #284]
	strh	r0, [sp, #18]	@ movhi
	mov	r0, r10
	strh	r1, [sp, #20]	@ movhi
	add	r1, sp, #16
	str	r2, [sp, #24]
	str	sp, [sp, #28]
	ldr	r2, [r10, #1980]
	blx	r2
	cmp	r0, #0
	bne	.L1510
.L1511:
	movs	r7, #0
.L1523:
	cmp	r7, r6
	ldr	r2, [r10, #4]
	beq	.L1522
	ldrh	r0, [r4]
	ldrh	r1, [r2, #28]
	ldr	r2, [r5, r7, lsl #2]
	strh	r7, [sp, #16]	@ movhi
	adds	r7, r7, #1
	strh	r0, [sp, #18]	@ movhi
	mov	r0, r10
	strh	r1, [sp, #20]	@ movhi
	add	r1, sp, #16
	str	r2, [sp, #24]
	str	sp, [sp, #28]
	ldr	r2, [r10, #1988]
	blx	r2
	b	.L1523
.L1507:
	ldrh	r0, [r2, #26]
	bl	nftl_malloc
	str	r0, [r5, r6, lsl #2]
	cbnz	r0, .L1506
	mov	r1, r7
	mov	r0, r8
	bl	NAND_Print
.L1506:
	adds	r6, r6, #1
	b	.L1505
.L1509:
	mov	r0, sp
	bl	is_ftl_logic_page_data
	cmp	r0, #1
	bne	.L1512
	cmp	fp, #0
	beq	.L1513
	cmp	fp, #10
	bne	.L1514
.L1513:
	ldr	r2, [r10, #4]
	adds	r6, r6, #1
	ldr	r1, [r10, #284]
	ldr	r0, [r5, r7, lsl #2]
	ldrh	r2, [r2, #26]
	bl	NAND_Memcpy
.L1514:
	adds	r7, r7, #1
	b	.L1508
.L1512:
	ldrb	r1, [sp, #1]	@ zero_extendqisi2
	cmp	r1, #170
	bne	.L1515
	cmp	fp, #0
	bne	.L1533
.L1516:
	ldr	r2, [r10, #4]
	adds	r6, r6, #1
	ldr	r1, [r10, #284]
	ldr	r0, [r5, r7, lsl #2]
	ldrh	r2, [r2, #26]
	bl	NAND_Memcpy
	b	.L1518
.L1515:
	ldr	r0, .L1535+12
.L1534:
	bl	NAND_Print
	b	.L1514
.L1533:
	cmp	fp, #10
	beq	.L1516
.L1518:
	ldr	r0, .L1535+16
	b	.L1534
.L1510:
	ldr	r2, [r10, #2000]
	add	r1, sp, #16
	mov	r0, r10
	blx	r2
	mov	r0, r10
	bl	out_phy_block_from_free_list
	mov	r4, r0
	cbnz	r0, .L1521
	ldr	r0, .L1535+20
	bl	NAND_Print
.L1522:
	movs	r6, #0
.L1525:
	ldr	r2, [r10, #4]
	ldrh	r2, [r2, #20]
	cmp	r2, r6
	bgt	.L1526
	mov	r0, r5
	bl	nftl_free
	ldr	r0, .L1535+24
	bl	NAND_Print
	mov	r0, r4
	add	sp, sp, #32
	@ sp needed
	pop	{r4, r5, r6, r7, r8, r10, fp, pc}
.L1521:
	ldr	r2, [r10, #4]
	ldrh	r0, [r0]
	strh	r8, [sp, #16]	@ movhi
	ldrh	r1, [r2, #28]
	ldr	r2, [r10, #284]
	strh	r0, [sp, #18]	@ movhi
	mov	r0, r10
	strh	r1, [sp, #20]	@ movhi
	add	r1, sp, #16
	str	r2, [sp, #24]
	str	sp, [sp, #28]
	ldr	r2, [r10, #1980]
	blx	r2
	b	.L1511
.L1526:
	ldr	r0, [r5, r6, lsl #2]
	adds	r6, r6, #1
	bl	nftl_free
	b	.L1525
.L1536:
	.align	2
.L1535:
	.word	.LC189
	.word	.LANCHOR98
	.word	.LC190
	.word	.LC192
	.word	.LC193
	.word	.LC194
	.word	.LC195
	.word	.LC191
	.size	block_last_page_ecc_error, .-block_last_page_ecc_error
	.section	.text.is_fill_page,"ax",%progbits
	.align	1
	.global	is_fill_page
	.syntax unified
	.thumb
	.thumb_func
	.fpu softvfp
	.type	is_fill_page, %function
is_fill_page:
	@ args = 0, pretend = 0, frame = 0
	@ frame_needed = 0, uses_anonymous_args = 0
	push	{r3, lr}
	bl	get_special_data_from_oob
	sub	r3, r0, #1431655765
	rsbs	r0, r3, #0
	adcs	r0, r0, r3
	pop	{r3, pc}
	.size	is_fill_page, .-is_fill_page
	.section	.text.is_phy_mapping_page,"ax",%progbits
	.align	1
	.global	is_phy_mapping_page
	.syntax unified
	.thumb
	.thumb_func
	.fpu softvfp
	.type	is_phy_mapping_page, %function
is_phy_mapping_page:
	@ args = 0, pretend = 0, frame = 0
	@ frame_needed = 0, uses_anonymous_args = 0
	push	{r3, lr}
	bl	get_special_data_from_oob
	ldr	r3, .L1539
	subs	r3, r0, r3
	rsbs	r0, r3, #0
	adcs	r0, r0, r3
	pop	{r3, pc}
.L1540:
	.align	2
.L1539:
	.word	-1431633921
	.size	is_phy_mapping_page, .-is_phy_mapping_page
	.section	.text.is_function_info_page,"ax",%progbits
	.align	1
	.global	is_function_info_page
	.syntax unified
	.thumb
	.thumb_func
	.fpu softvfp
	.type	is_function_info_page, %function
is_function_info_page:
	@ args = 0, pretend = 0, frame = 0
	@ frame_needed = 0, uses_anonymous_args = 0
	push	{r3, lr}
	bl	get_special_data_from_oob
	lsrs	r0, r0, #16
	ldr	r3, .L1542
	lsls	r0, r0, #16
	subs	r3, r0, r3
	rsbs	r0, r3, #0
	adcs	r0, r0, r3
	pop	{r3, pc}
.L1543:
	.align	2
.L1542:
	.word	-1441726464
	.size	is_function_info_page, .-is_function_info_page
	.section	.text.is_power_down_info_page,"ax",%progbits
	.align	1
	.global	is_power_down_info_page
	.syntax unified
	.thumb
	.thumb_func
	.fpu softvfp
	.type	is_power_down_info_page, %function
is_power_down_info_page:
	@ args = 0, pretend = 0, frame = 0
	@ frame_needed = 0, uses_anonymous_args = 0
	push	{r3, lr}
	bl	get_special_data_from_oob
	ldr	r3, .L1545
	subs	r3, r0, r3
	rsbs	r0, r3, #0
	adcs	r0, r0, r3
	pop	{r3, pc}
.L1546:
	.align	2
.L1545:
	.word	-1441713357
	.size	is_power_down_info_page, .-is_power_down_info_page
	.section	.text.get_logic_page_map,"ax",%progbits
	.align	1
	.global	get_logic_page_map
	.syntax unified
	.thumb
	.thumb_func
	.fpu softvfp
	.type	get_logic_page_map, %function
get_logic_page_map:
	@ args = 0, pretend = 0, frame = 0
	@ frame_needed = 0, uses_anonymous_args = 0
	push	{r3, lr}
	mov	r2, r1
	ldr	r3, [r0, #28]
	cmp	r3, r1
	bhi	.L1548
	ldr	r1, .L1550
	ldr	r0, .L1550+4
	bl	NAND_Print
	movs	r0, #0
.L1547:
	pop	{r3, pc}
.L1548:
	lsrs	r1, r1, #18
	add	r0, r0, r1, lsl #2
	rsb	r1, r1, r1, lsl #14
	ldr	r0, [r0, #52]
	add	r2, r2, r1, lsl #18
	add	r0, r0, r2, lsl #2
	b	.L1547
.L1551:
	.align	2
.L1550:
	.word	.LANCHOR99
	.word	.LC196
	.size	get_logic_page_map, .-get_logic_page_map
	.section	.text.recover_logic_page_mapping,"ax",%progbits
	.align	1
	.global	recover_logic_page_mapping
	.syntax unified
	.thumb
	.thumb_func
	.fpu softvfp
	.type	recover_logic_page_mapping, %function
recover_logic_page_mapping:
	@ args = 0, pretend = 0, frame = 8
	@ frame_needed = 0, uses_anonymous_args = 0
	push	{r0, r1, r4, r5, r6, r7, r8, r10, fp, lr}
	mov	r6, r0
	mov	r4, r1
	mov	fp, r2
	mov	r10, r3
	movs	r5, #0
.L1553:
	cmp	r5, r10
	bne	.L1563
	movs	r0, #0
	add	sp, sp, #8
	@ sp needed
	pop	{r4, r5, r6, r7, r8, r10, fp, pc}
.L1563:
	ldr	r3, [fp, r5, lsl #2]
	ldr	r2, [r6, #28]
	cmp	r2, r3
	bls	.L1554
	mov	r1, r3
	mov	r0, r6
	bl	get_logic_page_map
	mov	r7, r0
	cbnz	r0, .L1555
	ldr	r0, .L1567
	bl	NAND_Print
	ldrh	r3, [r4, #4]
	adds	r3, r3, #1
	strh	r3, [r4, #4]	@ movhi
.L1556:
	adds	r5, r5, #1
	b	.L1553
.L1555:
	ldrh	r3, [r0, #2]
	movw	r2, #65535
	cmp	r3, r2
	beq	.L1558
	ldr	r2, [r6, #4]
	mov	r8, #36
	mul	r8, r8, r3
	ldr	r2, [r2, #32]
	add	r3, r2, r8
	cmp	r4, r3
	beq	.L1559
	mov	r1, r3
	mov	r0, r6
	str	r2, [sp, #4]
	str	r3, [sp]
	bl	phy_block_from_invalid_page_incr
	ldrd	r3, r2, [sp]
.L1560:
	ldr	r0, [r6, #4]
	ldrh	r1, [r3, #4]
	ldrh	r3, [r0, #20]
	cmp	r1, r3
	bls	.L1558
	ldrh	r1, [r2, r8]
	ldr	r0, .L1567+4
	bl	NAND_Print
.L1558:
	ldrh	r3, [r7]
	bfi	r3, r5, #0, #12
	strh	r3, [r7]	@ movhi
	ldrh	r3, [r4]
	strh	r3, [r7, #2]	@ movhi
	b	.L1556
.L1559:
	ldrh	r1, [r4, #4]
	adds	r1, r1, #1
	strh	r1, [r4, #4]	@ movhi
	b	.L1560
.L1554:
	adds	r2, r3, #1
	beq	.L1562
	mov	r2, r5
	ldrh	r1, [r4]
	ldr	r0, .L1567+8
	bl	NAND_Print
.L1562:
	ldrh	r3, [r4, #4]
	ldr	r2, [r6, #4]
	adds	r3, r3, #1
	ldrh	r2, [r2, #20]
	uxth	r3, r3
	strh	r3, [r4, #4]	@ movhi
	cmp	r2, r3
	bcs	.L1556
	ldr	r0, .L1567+12
	bl	NAND_Print
	b	.L1556
.L1568:
	.align	2
.L1567:
	.word	.LC197
	.word	.LC198
	.word	.LC199
	.word	.LC200
	.size	recover_logic_page_mapping, .-recover_logic_page_mapping
	.section	.text.malloc_logic_page_map,"ax",%progbits
	.align	1
	.global	malloc_logic_page_map
	.syntax unified
	.thumb
	.thumb_func
	.fpu softvfp
	.type	malloc_logic_page_map, %function
malloc_logic_page_map:
	@ args = 0, pretend = 0, frame = 0
	@ frame_needed = 0, uses_anonymous_args = 0
	push	{r4, r5, r6, r7, r8, lr}
	add	r7, r0, #52
	mov	r4, r1
	mov	r6, r0
	add	r2, r0, #152
	mov	r3, r7
	movs	r1, #0
.L1570:
	str	r1, [r3], #4
	cmp	r3, r2
	bne	.L1570
	ldr	r8, .L1582+16
	movs	r5, #0
	mov	r2, #262144
	mov	r1, r4
	ldr	r0, .L1582
	bl	NAND_Print
.L1574:
	cmp	r4, r8
	bls	.L1571
	mov	r0, #1048576
	bl	NAND_Malloc
	str	r0, [r7], #4
	cbnz	r0, .L1572
	ldr	r0, .L1582+4
	mov	r1, r5
.L1581:
	bl	NAND_Print
	mvn	r0, #1
.L1569:
	pop	{r4, r5, r6, r7, r8, pc}
.L1572:
	mov	r2, #1048576
	movs	r1, #255
	adds	r5, r5, #1
	sub	r4, r4, #262144
	bl	NAND_Memset
	cmp	r5, #25
	bne	.L1574
	cbz	r4, .L1577
	mov	r1, r4
	ldr	r0, .L1582+8
	b	.L1581
.L1571:
	lsls	r4, r4, #2
	mov	r0, r4
	bl	nftl_malloc
	add	r3, r6, r5, lsl #2
	str	r0, [r3, #52]
	cbnz	r0, .L1576
	mov	r1, r5
	ldr	r0, .L1582+12
	b	.L1581
.L1576:
	mov	r2, r4
	movs	r1, #255
	bl	NAND_Memset
	movs	r0, #0
	b	.L1569
.L1577:
	mov	r0, r4
	b	.L1569
.L1583:
	.align	2
.L1582:
	.word	.LC201
	.word	.LC202
	.word	.LC204
	.word	.LC203
	.word	262143
	.size	malloc_logic_page_map, .-malloc_logic_page_map
	.section	.text.zone_param_init,"ax",%progbits
	.align	1
	.global	zone_param_init
	.syntax unified
	.thumb
	.thumb_func
	.fpu softvfp
	.type	zone_param_init, %function
zone_param_init:
	@ args = 0, pretend = 0, frame = 0
	@ frame_needed = 0, uses_anonymous_args = 0
	push	{r3, r4, r5, r6, r7, lr}
	mov	r7, r3
	ldr	r3, [r0, #4]
	mov	r4, r0
	mov	r5, r1
	mov	r6, r2
	ldrh	r0, [r3, #26]
	bl	nftl_malloc
	str	r0, [r4, #284]
	cbnz	r0, .L1585
	ldr	r1, .L1596
	ldr	r0, .L1596+4
.L1594:
	bl	NAND_Print
	b	.L1595
.L1585:
	ldr	r3, [r4, #4]
	ldrh	r0, [r3, #26]
	bl	nftl_malloc
	str	r0, [r4, #288]
	cbnz	r0, .L1587
	ldr	r1, .L1596
	ldr	r0, .L1596+8
	b	.L1594
.L1587:
	ldr	r2, [r4, #4]
	movs	r1, #36
	strh	r5, [r4, #36]	@ movhi
	mov	r0, r6
	str	r6, [r4, #24]
	ldr	r3, [r2, #32]
	str	r7, [r4, #32]
	mla	r5, r1, r5, r3
	movs	r3, #0
	strh	r3, [r4, #18]	@ movhi
	str	r5, [r4, #40]
	strh	r3, [r4, #20]	@ movhi
	strh	r3, [r4, #22]	@ movhi
	str	r3, [r4, #44]
	ldrb	r1, [r2, #8]	@ zero_extendqisi2
	bl	__aeabi_uidiv
	mov	r1, r0
	mov	r0, r4
	bl	malloc_logic_page_map
	mov	r5, r0
	cbz	r0, .L1588
	ldr	r0, .L1596+12
	bl	NAND_Print
.L1595:
	mvn	r5, #1
.L1584:
	mov	r0, r5
	pop	{r3, r4, r5, r6, r7, pc}
.L1588:
	ldr	r3, [r4, #4]
	ldrh	r0, [r3, #20]
	mov	r3, #320
	str	r3, [r4, #316]
	lsls	r0, r0, #2
	str	r0, [r4, #308]
	add	r0, r0, r3
	str	r0, [r4, #300]
	bl	nftl_malloc
	mov	r3, r0
	str	r0, [r4, #296]
	cbnz	r0, .L1589
	ldr	r1, .L1596
	ldr	r0, .L1596+16
	b	.L1594
.L1589:
	ldr	r2, [r4, #308]
	movs	r1, #255
	str	r0, [r4, #304]
	add	r3, r3, r2
	ldr	r2, [r4, #300]
	str	r3, [r4, #312]
	str	r3, [r4, #1968]
	bl	NAND_Memset
	ldr	r3, [r4, #308]
	ldr	r0, [r4, #300]
	str	r3, [r4, #340]
	str	r0, [r4, #332]
	bl	nftl_malloc
	mov	r3, r0
	str	r0, [r4, #328]
	cbnz	r0, .L1590
	ldr	r1, .L1596
	ldr	r0, .L1596+20
	b	.L1594
.L1590:
	ldr	r2, [r4, #340]
	movs	r1, #255
	str	r0, [r4, #336]
	add	r3, r3, r2
	ldr	r2, [r4, #332]
	str	r3, [r4, #344]
	bl	NAND_Memset
	ldr	r3, [r4, #308]
	ldr	r0, [r4, #300]
	str	r3, [r4, #272]
	ldr	r3, [r4, #316]
	str	r0, [r4, #264]
	str	r3, [r4, #280]
	bl	nftl_malloc
	str	r0, [r4, #260]
	cbnz	r0, .L1591
	ldr	r1, .L1596
	ldr	r0, .L1596+24
	b	.L1594
.L1591:
	ldr	r3, [r4, #272]
	mov	r1, r5
	str	r0, [r4, #268]
	str	r5, [r4, #356]
	add	r0, r0, r3
	ldr	r3, [r4, #4]
	str	r0, [r4, #276]
	str	r5, [r4, #376]
	ldrh	r2, [r3, #16]
	strd	r5, r5, [r4, #360]
	strd	r5, r5, [r4, #368]
	strd	r5, r5, [r4, #576]
	lsrs	r3, r2, #1
	str	r5, [r4, #292]
	str	r5, [r4, #324]
	strh	r3, [r4, #572]	@ movhi
	ldr	r3, .L1596+28
	strd	r5, r5, [r4, #172]
	strd	r5, r5, [r4, #164]
	strd	r5, r5, [r4, #180]
	umull	r2, r3, r2, r3
	mov	r2, r4
	strd	r5, r5, [r4, #208]
	strd	r5, r5, [r4, #200]
	strd	r5, r5, [r4, #216]
	lsrs	r3, r3, #2
	strh	r3, [r4, #574]	@ movhi
	movw	r3, #65535
	strh	r3, [r4, #320]	@ movhi
	strh	r3, [r4, #352]	@ movhi
	mov	r3, r5
	strd	r5, r5, [r4, #244]
	strd	r5, r5, [r4, #236]
	strd	r5, r5, [r4, #252]
	strh	r5, [r4, #392]	@ movhi
.L1592:
	strh	r1, [r2, #396]	@ movhi
	adds	r1, r1, #1
	cmp	r1, #10
	strh	r3, [r2, #398]	@ movhi
	strd	r3, r3, [r2, #400]
	add	r2, r2, #16
	str	r3, [r2, #392]
	bne	.L1592
	movs	r2, #255
	strh	r3, [r4, #394]	@ movhi
	strd	r2, r3, [r4, #556]
	strd	r3, r3, [r4, #564]
	b	.L1584
.L1597:
	.align	2
.L1596:
	.word	.LANCHOR100
	.word	.LC205
	.word	.LC206
	.word	.LC207
	.word	.LC208
	.word	.LC209
	.word	.LC210
	.word	-1431655765
	.size	zone_param_init, .-zone_param_init
	.section	.text.free_logic_page_map,"ax",%progbits
	.align	1
	.global	free_logic_page_map
	.syntax unified
	.thumb
	.thumb_func
	.fpu softvfp
	.type	free_logic_page_map, %function
free_logic_page_map:
	@ args = 0, pretend = 0, frame = 0
	@ frame_needed = 0, uses_anonymous_args = 0
	push	{r3, r4, r5, lr}
	add	r5, r0, #52
	add	r4, r0, #152
.L1600:
	ldr	r0, [r5], #4
	cbz	r0, .L1599
	bl	nftl_free
.L1599:
	cmp	r5, r4
	bne	.L1600
	movs	r0, #0
	pop	{r3, r4, r5, pc}
	.size	free_logic_page_map, .-free_logic_page_map
	.section	.text.zone_param_exit,"ax",%progbits
	.align	1
	.global	zone_param_exit
	.syntax unified
	.thumb
	.thumb_func
	.fpu softvfp
	.type	zone_param_exit, %function
zone_param_exit:
	@ args = 0, pretend = 0, frame = 0
	@ frame_needed = 0, uses_anonymous_args = 0
	push	{r4, lr}
	mov	r4, r0
	bl	free_logic_page_map
	ldr	r0, [r4, #260]
	bl	nftl_free
	ldr	r0, [r4, #296]
	bl	nftl_free
	ldr	r0, [r4, #328]
	bl	nftl_free
	ldr	r0, [r4, #284]
	bl	nftl_free
	ldr	r0, [r4, #288]
	bl	nftl_free
	movs	r0, #0
	pop	{r4, pc}
	.size	zone_param_exit, .-zone_param_exit
	.section	.text.set_physic_op_par,"ax",%progbits
	.align	1
	.global	set_physic_op_par
	.syntax unified
	.thumb
	.thumb_func
	.fpu softvfp
	.type	set_physic_op_par, %function
set_physic_op_par:
	@ args = 8, pretend = 0, frame = 0
	@ frame_needed = 0, uses_anonymous_args = 0
	@ link register save eliminated.
	strh	r3, [r0, #4]	@ movhi
	ldr	r3, [sp]
	strh	r2, [r0]	@ movhi
	strh	r1, [r0, #2]	@ movhi
	str	r3, [r0, #8]
	ldr	r3, [sp, #4]
	str	r3, [r0, #12]
	bx	lr
	.size	set_physic_op_par, .-set_physic_op_par
	.section	.text.nftl_sector_cache_init,"ax",%progbits
	.align	1
	.global	nftl_sector_cache_init
	.syntax unified
	.thumb
	.thumb_func
	.fpu softvfp
	.type	nftl_sector_cache_init, %function
nftl_sector_cache_init:
	@ args = 0, pretend = 0, frame = 0
	@ frame_needed = 0, uses_anonymous_args = 0
	push	{r4, r5, r6, lr}
	movs	r3, #16
	movs	r5, #0
	mov	r4, r0
	str	r3, [r0, #1620]
	str	r5, [r0, #1624]
	mov	r0, #8192
	bl	NAND_Malloc
	str	r0, [r4, #1624]
	cbnz	r0, .L1608
	ldr	r1, .L1612
	ldr	r0, .L1612+4
	bl	NAND_Print
	movs	r0, #1
.L1607:
	pop	{r4, r5, r6, pc}
.L1608:
	mov	r2, r5
	str	r5, [r4, #1960]
	str	r5, [r4, #1964]
	mov	r3, r4
	movs	r6, #255
	mov	r5, #-1
	mov	r1, r2
.L1610:
	strh	r2, [r3, #1628]	@ movhi
	add	r4, r0, r2, lsl #9
	adds	r2, r2, #1
	strh	r6, [r3, #1630]	@ movhi
	cmp	r2, #16
	str	r5, [r3, #1632]
	str	r1, [r3, #1640]
	add	r3, r3, #20
	str	r1, [r3, #1624]
	str	r4, [r3, #1616]
	bne	.L1610
	movs	r0, #0
	b	.L1607
.L1613:
	.align	2
.L1612:
	.word	.LANCHOR101
	.word	.LC211
	.size	nftl_sector_cache_init, .-nftl_sector_cache_init
	.section	.text.nftl_sector_cache_exit,"ax",%progbits
	.align	1
	.global	nftl_sector_cache_exit
	.syntax unified
	.thumb
	.thumb_func
	.fpu softvfp
	.type	nftl_sector_cache_exit, %function
nftl_sector_cache_exit:
	@ args = 0, pretend = 0, frame = 0
	@ frame_needed = 0, uses_anonymous_args = 0
	push	{r3, lr}
	ldr	r0, [r0, #1624]
	bl	nftl_free
	movs	r0, #0
	pop	{r3, pc}
	.size	nftl_sector_cache_exit, .-nftl_sector_cache_exit
	.section	.text.search_from_sector_cache_write_list,"ax",%progbits
	.align	1
	.global	search_from_sector_cache_write_list
	.syntax unified
	.thumb
	.thumb_func
	.fpu softvfp
	.type	search_from_sector_cache_write_list, %function
search_from_sector_cache_write_list:
	@ args = 0, pretend = 0, frame = 0
	@ frame_needed = 0, uses_anonymous_args = 0
	@ link register save eliminated.
	ldr	r0, [r0, #340]
.L1616:
	cbnz	r0, .L1618
.L1615:
	bx	lr
.L1618:
	ldr	r3, [r0, #4]
	cmp	r3, r1
	beq	.L1615
	ldr	r0, [r0, #12]
	b	.L1616
	.size	search_from_sector_cache_write_list, .-search_from_sector_cache_write_list
	.section	.text.get_empty_sector_cahce_node,"ax",%progbits
	.align	1
	.global	get_empty_sector_cahce_node
	.syntax unified
	.thumb
	.thumb_func
	.fpu softvfp
	.type	get_empty_sector_cahce_node, %function
get_empty_sector_cahce_node:
	@ args = 0, pretend = 0, frame = 0
	@ frame_needed = 0, uses_anonymous_args = 0
	movs	r3, #0
	movs	r1, #20
	push	{r4, lr}
.L1622:
	mul	r2, r1, r3
	adds	r4, r0, r2
	ldrh	r4, [r4, #10]
	cmp	r4, #255
	bne	.L1620
	adds	r2, r2, #8
	add	r0, r0, r2
.L1619:
	pop	{r4, pc}
.L1620:
	adds	r3, r3, #1
	cmp	r3, #16
	bne	.L1622
	movs	r0, #0
	b	.L1619
	.size	get_empty_sector_cahce_node, .-get_empty_sector_cahce_node
	.section	.text.add_to_sector_cache_write_list_tail,"ax",%progbits
	.align	1
	.global	add_to_sector_cache_write_list_tail
	.syntax unified
	.thumb
	.thumb_func
	.fpu softvfp
	.type	add_to_sector_cache_write_list_tail, %function
add_to_sector_cache_write_list_tail:
	@ args = 0, pretend = 0, frame = 0
	@ frame_needed = 0, uses_anonymous_args = 0
	@ link register save eliminated.
	add	r2, r0, #328
.L1625:
	ldr	r3, [r2, #12]
	cbnz	r3, .L1626
	str	r1, [r2, #12]
	strd	r3, r2, [r1, #12]
	movs	r2, #1
	strh	r2, [r1, #2]	@ movhi
	ldrh	r2, [r0, #2]
	adds	r2, r2, #1
	strh	r2, [r0, #2]	@ movhi
	mov	r0, r3
	bx	lr
.L1626:
	mov	r2, r3
	b	.L1625
	.size	add_to_sector_cache_write_list_tail, .-add_to_sector_cache_write_list_tail
	.section	.text.del_from_sector_cache_write_list,"ax",%progbits
	.align	1
	.global	del_from_sector_cache_write_list
	.syntax unified
	.thumb
	.thumb_func
	.fpu softvfp
	.type	del_from_sector_cache_write_list, %function
del_from_sector_cache_write_list:
	@ args = 0, pretend = 0, frame = 0
	@ frame_needed = 0, uses_anonymous_args = 0
	@ link register save eliminated.
	ldrd	r3, r2, [r1, #12]
	str	r3, [r2, #12]
	ldr	r3, [r1, #12]
	cbz	r3, .L1628
	str	r2, [r3, #16]
.L1628:
	movs	r3, #0
	strd	r3, r3, [r1, #12]
	movs	r3, #255
	strh	r3, [r1, #2]	@ movhi
	ldrh	r3, [r0, #2]
	subs	r3, r3, #1
	strh	r3, [r0, #2]	@ movhi
	mov	r0, r1
	bx	lr
	.size	del_from_sector_cache_write_list, .-del_from_sector_cache_write_list
	.section	.text.get_empty_gc_node,"ax",%progbits
	.align	1
	.global	get_empty_gc_node
	.syntax unified
	.thumb
	.thumb_func
	.fpu softvfp
	.type	get_empty_gc_node, %function
get_empty_gc_node:
	@ args = 0, pretend = 0, frame = 0
	@ frame_needed = 0, uses_anonymous_args = 0
	@ link register save eliminated.
	movs	r3, #0
.L1635:
	lsls	r2, r3, #4
	adds	r1, r0, r2
	ldrh	r1, [r1, #6]
	cbnz	r1, .L1633
	adds	r2, r2, #4
	add	r0, r0, r2
	bx	lr
.L1633:
	adds	r3, r3, #1
	cmp	r3, #10
	bne	.L1635
	movs	r0, #0
	bx	lr
	.size	get_empty_gc_node, .-get_empty_gc_node
	.section	.text.search_gc_node,"ax",%progbits
	.align	1
	.global	search_gc_node
	.syntax unified
	.thumb
	.thumb_func
	.fpu softvfp
	.type	search_gc_node, %function
search_gc_node:
	@ args = 0, pretend = 0, frame = 0
	@ frame_needed = 0, uses_anonymous_args = 0
	@ link register save eliminated.
	ldr	r0, [r0, #172]
.L1638:
	cbnz	r0, .L1640
.L1637:
	bx	lr
.L1640:
	ldr	r3, [r0, #4]
	cmp	r3, r1
	beq	.L1637
	ldr	r0, [r0, #8]
	b	.L1638
	.size	search_gc_node, .-search_gc_node
	.section	.text.add_to_gc_list_tail,"ax",%progbits
	.align	1
	.global	add_to_gc_list_tail
	.syntax unified
	.thumb
	.thumb_func
	.fpu softvfp
	.type	add_to_gc_list_tail, %function
add_to_gc_list_tail:
	@ args = 0, pretend = 0, frame = 0
	@ frame_needed = 0, uses_anonymous_args = 0
	@ link register save eliminated.
	add	r2, r0, #164
.L1642:
	ldr	r3, [r2, #8]
	cbnz	r3, .L1643
	str	r1, [r2, #8]
	strd	r3, r2, [r1, #8]
	ldrh	r2, [r0]
	adds	r2, r2, #1
	strh	r2, [r0]	@ movhi
	mov	r0, r3
	bx	lr
.L1643:
	mov	r2, r3
	b	.L1642
	.size	add_to_gc_list_tail, .-add_to_gc_list_tail
	.section	.text.del_from_gc_list,"ax",%progbits
	.align	1
	.global	del_from_gc_list
	.syntax unified
	.thumb
	.thumb_func
	.fpu softvfp
	.type	del_from_gc_list, %function
del_from_gc_list:
	@ args = 0, pretend = 0, frame = 0
	@ frame_needed = 0, uses_anonymous_args = 0
	@ link register save eliminated.
	ldrd	r3, r2, [r1, #8]
	str	r3, [r2, #8]
	ldr	r3, [r1, #8]
	cbz	r3, .L1645
	str	r2, [r3, #12]
.L1645:
	movs	r3, #0
	strd	r3, r3, [r1, #8]
	ldrh	r3, [r0]
	subs	r3, r3, #1
	strh	r3, [r0]	@ movhi
	mov	r0, r1
	bx	lr
	.size	del_from_gc_list, .-del_from_gc_list
	.section	.text.add_prio_gc,"ax",%progbits
	.align	1
	.global	add_prio_gc
	.syntax unified
	.thumb
	.thumb_func
	.fpu softvfp
	.type	add_prio_gc, %function
add_prio_gc:
	@ args = 0, pretend = 0, frame = 0
	@ frame_needed = 0, uses_anonymous_args = 0
	push	{r3, r4, r5, r6, r7, lr}
	add	r5, r0, #392
	mov	r0, r5
	mov	r7, r1
	mov	r6, r2
	bl	search_gc_node
	mov	r4, r0
	cbnz	r0, .L1652
	mov	r0, r5
	bl	get_empty_gc_node
	mov	r1, r0
	cbz	r0, .L1652
	str	r7, [r0, #4]
	strh	r6, [r0, #2]	@ movhi
	strd	r4, r4, [r0, #8]
	mov	r0, r5
	bl	add_to_gc_list_tail
	mov	r0, r4
.L1649:
	pop	{r3, r4, r5, r6, r7, pc}
.L1652:
	movs	r0, #1
	b	.L1649
	.size	add_prio_gc, .-add_prio_gc
	.section	.text.first_scan_all_blocks,"ax",%progbits
	.align	1
	.global	first_scan_all_blocks
	.syntax unified
	.thumb
	.thumb_func
	.fpu softvfp
	.type	first_scan_all_blocks, %function
first_scan_all_blocks:
	@ args = 0, pretend = 0, frame = 32
	@ frame_needed = 0, uses_anonymous_args = 0
	push	{r4, r5, r6, r7, r8, r10, fp, lr}
	sub	sp, sp, #88
	ldr	r4, [r0, #40]
	mov	r5, r0
	movs	r2, #5
	add	r0, sp, #72
	ldr	r1, .L1707
	add	r6, sp, #88
	bl	memcpy
	movs	r3, #47
	ldr	r1, .L1707+4
	strh	r3, [r6, #-32]!	@ movhi
	mov	r0, r6
	bl	nand_fdt_get_string
	cmp	r0, #0
	beq	.L1654
	movs	r2, #3
	add	r1, sp, #72
	bl	NAND_Memcmp
	mov	r7, r0
	cbnz	r0, .L1654
	ldr	r0, .L1707+8
	bl	NAND_Print_DBG
	strh	r7, [r5, #18]	@ movhi
.L1655:
	ldr	r3, [r5, #4]
	mov	r10, #0
	ldrh	r2, [r4]
	ldrh	r3, [r3, #24]
	cmp	r3, r2
	bls	.L1700
	strh	r2, [sp, #74]	@ movhi
	add	r1, sp, #72
	strh	r10, [sp, #72]	@ movhi
	mov	r0, r5
	strh	r10, [sp, #76]	@ movhi
	strd	r10, r6, [sp, #80]
	ldr	r2, [r5, #1996]
	blx	r2
	cmp	r0, #1
	bne	.L1657
	ldr	r2, [r5, #1984]
	add	r1, sp, #72
	mov	r0, r5
	blx	r2
	str	r4, [r5, #44]
	mov	r8, r0
	mov	r0, r6
	bl	get_block_used_count_from_oob
	mov	fp, r0
	mov	r0, r6
	bl	is_ftl_end_flag_page
	cmp	r0, #1
	bne	.L1658
	ldrh	r1, [r4]
	ldr	r0, .L1707+12
	bl	NAND_Print
.L1700:
	mov	r0, r10
	b	.L1653
.L1654:
	mov	r0, #-1
.L1653:
	add	sp, sp, #88
	@ sp needed
	pop	{r4, r5, r6, r7, r8, r10, fp, pc}
.L1658:
	mov	r0, r6
	bl	is_panic_data_page
	cmp	r0, #1
	bne	.L1659
	ldrb	r2, [sp, #59]	@ zero_extendqisi2
	ldrb	r3, [r5, #16]	@ zero_extendqisi2
	cmp	r2, r3
	bne	.L1660
	mov	r1, r4
	mov	r0, r6
	bl	panic_recover_info
.L1660:
	adds	r4, r4, #36
	b	.L1655
.L1659:
	mov	r0, r6
	bl	is_nouse_page
	cmp	r0, #1
	bne	.L1661
	ldrh	r2, [r5, #18]
	mov	r1, r4
	mov	r0, r5
	adds	r2, r2, #1
	strh	r2, [r5, #18]	@ movhi
	strh	r10, [r4, #2]	@ movhi
	strh	r10, [r4, #6]	@ movhi
	strh	r10, [r4, #4]	@ movhi
	bl	put_phy_block_to_free_list
	b	.L1660
.L1661:
	mov	r0, r6
	bl	is_ftl_logic_page_data
	cmp	r0, #1
	beq	.L1662
	mov	r0, r6
	bl	is_function_info_page
	cmp	r0, #1
	bne	.L1663
.L1662:
	cmp	r8, #0
	beq	.L1664
	cmp	r8, #10
	bne	.L1663
.L1664:
	ldrh	r3, [r5, #18]
	mov	r10, #1
	mov	r0, r6
	adds	r3, r3, #1
	strh	r3, [r5, #18]	@ movhi
	strh	r10, [r4, #2]	@ movhi
	bl	get_erase_count_from_oob
	movs	r3, #0
	strh	r0, [r4, #6]	@ movhi
	mov	r7, r0
	strh	r3, [r4, #4]	@ movhi
	str	fp, [r4, #8]
	mov	r1, r4
	strd	r3, r3, [r4, #28]
	mov	r0, r5
	bl	add_block_count_list
	cmp	r8, #10
	bne	.L1660
	ldr	r3, [r5, #1972]
	ldrh	r3, [r3, #4]
	cmp	r3, #0
	beq	.L1660
	mov	r2, r10
	mov	r0, r5
	bl	add_prio_gc
	ldr	r0, .L1707+16
	bl	NAND_Print_DBG
	b	.L1660
.L1663:
	mov	r0, r6
	bl	is_ftl_start_flag_page
	cmp	r0, #1
	bne	.L1665
	ldr	r0, .L1707+20
.L1699:
	bl	NAND_Print
	b	.L1660
.L1665:
	mov	r0, r6
	bl	is_fill_page
	cmp	r0, #1
	bne	.L1666
	ldrh	r3, [r5, #18]
	mov	r0, r6
	adds	r3, r3, #1
	strh	r3, [r5, #18]	@ movhi
	movs	r3, #0
	strh	r3, [r4, #2]	@ movhi
	bl	get_erase_count_from_oob
	ldr	r3, [r5, #4]
	mov	r1, r4
	strh	r0, [r4, #6]	@ movhi
	mov	r7, r0
	mov	r0, r5
	ldrh	r3, [r3, #20]
	strh	r3, [r4, #4]	@ movhi
	bl	put_phy_block_to_free_list
	ldrh	r1, [r4]
	ldr	r0, .L1707+24
	bl	NAND_Print_DBG
	b	.L1660
.L1666:
	ldrb	r0, [sp, #71]	@ zero_extendqisi2
	ldrh	r1, [r4]
